
CAMcontrol.elf:     file format elf32-avr

Sections:
Idx Name          Size      VMA       LMA       File off  Algn
  0 .data         00000252  00800100  00003154  000031e8  2**0
                  CONTENTS, ALLOC, LOAD, DATA
  1 .text         00003154  00000000  00000000  00000094  2**1
                  CONTENTS, ALLOC, LOAD, READONLY, CODE
  2 .bss          000000cd  00800352  00800352  0000343a  2**0
                  ALLOC
  3 .comment      00000030  00000000  00000000  0000343a  2**0
                  CONTENTS, READONLY
  4 .debug_aranges 00000550  00000000  00000000  0000346a  2**0
                  CONTENTS, READONLY, DEBUGGING
  5 .debug_info   00007070  00000000  00000000  000039ba  2**0
                  CONTENTS, READONLY, DEBUGGING
  6 .debug_abbrev 00001135  00000000  00000000  0000aa2a  2**0
                  CONTENTS, READONLY, DEBUGGING
  7 .debug_line   00001d44  00000000  00000000  0000bb5f  2**0
                  CONTENTS, READONLY, DEBUGGING
  8 .debug_frame  00000bf0  00000000  00000000  0000d8a4  2**2
                  CONTENTS, READONLY, DEBUGGING
  9 .debug_str    00001d35  00000000  00000000  0000e494  2**0
                  CONTENTS, READONLY, DEBUGGING
 10 .debug_loc    000025be  00000000  00000000  000101c9  2**0
                  CONTENTS, READONLY, DEBUGGING
 11 .debug_ranges 000004b0  00000000  00000000  00012787  2**0
                  CONTENTS, READONLY, DEBUGGING

Disassembly of section .text:

00000000 <__vectors>:
       0:	0c 94 48 00 	jmp	0x90	; 0x90 <__ctors_end>
       4:	0c 94 65 00 	jmp	0xca	; 0xca <__bad_interrupt>
       8:	0c 94 65 00 	jmp	0xca	; 0xca <__bad_interrupt>
       c:	0c 94 65 00 	jmp	0xca	; 0xca <__bad_interrupt>
      10:	0c 94 65 00 	jmp	0xca	; 0xca <__bad_interrupt>
      14:	0c 94 65 00 	jmp	0xca	; 0xca <__bad_interrupt>
      18:	0c 94 65 00 	jmp	0xca	; 0xca <__bad_interrupt>
      1c:	0c 94 65 00 	jmp	0xca	; 0xca <__bad_interrupt>
      20:	0c 94 65 00 	jmp	0xca	; 0xca <__bad_interrupt>
      24:	0c 94 65 00 	jmp	0xca	; 0xca <__bad_interrupt>
      28:	0c 94 65 00 	jmp	0xca	; 0xca <__bad_interrupt>
      2c:	0c 94 65 00 	jmp	0xca	; 0xca <__bad_interrupt>
      30:	0c 94 65 00 	jmp	0xca	; 0xca <__bad_interrupt>
      34:	0c 94 4a 13 	jmp	0x2694	; 0x2694 <__vector_13>
      38:	0c 94 65 00 	jmp	0xca	; 0xca <__bad_interrupt>
      3c:	0c 94 65 00 	jmp	0xca	; 0xca <__bad_interrupt>
      40:	0c 94 65 00 	jmp	0xca	; 0xca <__bad_interrupt>
      44:	0c 94 65 00 	jmp	0xca	; 0xca <__bad_interrupt>
      48:	0c 94 ae 17 	jmp	0x2f5c	; 0x2f5c <__vector_18>
      4c:	0c 94 65 00 	jmp	0xca	; 0xca <__bad_interrupt>
      50:	0c 94 65 00 	jmp	0xca	; 0xca <__bad_interrupt>
      54:	0c 94 65 00 	jmp	0xca	; 0xca <__bad_interrupt>
      58:	0c 94 65 00 	jmp	0xca	; 0xca <__bad_interrupt>
      5c:	0c 94 65 00 	jmp	0xca	; 0xca <__bad_interrupt>
      60:	0c 94 65 00 	jmp	0xca	; 0xca <__bad_interrupt>
      64:	0c 94 65 00 	jmp	0xca	; 0xca <__bad_interrupt>
      68:	4c 11       	cpse	r20, r12
      6a:	4f 11       	cpse	r20, r15
      6c:	52 11       	cpse	r21, r2
      6e:	55 11       	cpse	r21, r5
      70:	58 11       	cpse	r21, r8
      72:	5b 11       	cpse	r21, r11
      74:	61 11       	cpse	r22, r1
      76:	5e 11       	cpse	r21, r14
      78:	64 11       	cpse	r22, r4
      7a:	67 11       	cpse	r22, r7
      7c:	6a 11       	cpse	r22, r10
      7e:	6d 11       	cpse	r22, r13
      80:	7a 11       	cpse	r23, r10
      82:	7d 11       	cpse	r23, r13
      84:	80 11       	cpse	r24, r0
      86:	83 11       	cpse	r24, r3
      88:	86 11       	cpse	r24, r6
      8a:	89 11       	cpse	r24, r9
      8c:	8f 11       	cpse	r24, r15
      8e:	8c 11       	cpse	r24, r12

00000090 <__ctors_end>:
      90:	11 24       	eor	r1, r1
      92:	1f be       	out	0x3f, r1	; 63
      94:	cf ef       	ldi	r28, 0xFF	; 255
      96:	d4 e0       	ldi	r29, 0x04	; 4
      98:	de bf       	out	0x3e, r29	; 62
      9a:	cd bf       	out	0x3d, r28	; 61

0000009c <__do_copy_data>:
      9c:	13 e0       	ldi	r17, 0x03	; 3
      9e:	a0 e0       	ldi	r26, 0x00	; 0
      a0:	b1 e0       	ldi	r27, 0x01	; 1
      a2:	e4 e5       	ldi	r30, 0x54	; 84
      a4:	f1 e3       	ldi	r31, 0x31	; 49
      a6:	02 c0       	rjmp	.+4      	; 0xac <__do_copy_data+0x10>
      a8:	05 90       	lpm	r0, Z+
      aa:	0d 92       	st	X+, r0
      ac:	a2 35       	cpi	r26, 0x52	; 82
      ae:	b1 07       	cpc	r27, r17
      b0:	d9 f7       	brne	.-10     	; 0xa8 <__do_copy_data+0xc>

000000b2 <__do_clear_bss>:
      b2:	24 e0       	ldi	r18, 0x04	; 4
      b4:	a2 e5       	ldi	r26, 0x52	; 82
      b6:	b3 e0       	ldi	r27, 0x03	; 3
      b8:	01 c0       	rjmp	.+2      	; 0xbc <.do_clear_bss_start>

000000ba <.do_clear_bss_loop>:
      ba:	1d 92       	st	X+, r1

000000bc <.do_clear_bss_start>:
      bc:	af 31       	cpi	r26, 0x1F	; 31
      be:	b2 07       	cpc	r27, r18
      c0:	e1 f7       	brne	.-8      	; 0xba <.do_clear_bss_loop>
      c2:	0e 94 9b 08 	call	0x1136	; 0x1136 <main>
      c6:	0c 94 a8 18 	jmp	0x3150	; 0x3150 <_exit>

000000ca <__bad_interrupt>:
      ca:	0c 94 00 00 	jmp	0	; 0x0 <__vectors>

000000ce <CAM_SetZoomStop>:
// 	USART_SendCmd(g_stCameraCmd.pCmd, g_stCameraCmd.CmdLen);
// }

void CAM_SetZoomStop(void)
{
	g_stCameraCmd = AllCamCmd[CAM_Zoom_Stop];
      ce:	8e e2       	ldi	r24, 0x2E	; 46
      d0:	e5 e7       	ldi	r30, 0x75	; 117
      d2:	f3 e0       	ldi	r31, 0x03	; 3
      d4:	df 01       	movw	r26, r30
      d6:	98 2f       	mov	r25, r24
      d8:	1d 92       	st	X+, r1
      da:	9a 95       	dec	r25
      dc:	e9 f7       	brne	.-6      	; 0xd8 <CAM_SetZoomStop+0xa>
      de:	df 01       	movw	r26, r30
      e0:	1d 92       	st	X+, r1
      e2:	8a 95       	dec	r24
      e4:	e9 f7       	brne	.-6      	; 0xe0 <CAM_SetZoomStop+0x12>
      e6:	81 e4       	ldi	r24, 0x41	; 65
      e8:	92 e0       	ldi	r25, 0x02	; 2
      ea:	91 83       	std	Z+1, r25	; 0x01
      ec:	80 83       	st	Z, r24
      ee:	86 e0       	ldi	r24, 0x06	; 6
      f0:	80 93 77 03 	sts	0x0377, r24
      f4:	81 e0       	ldi	r24, 0x01	; 1
      f6:	80 93 78 03 	sts	0x0378, r24
	USART_SendCmd(g_stCameraCmd.pCmd, g_stCameraCmd.CmdLen);
      fa:	66 e0       	ldi	r22, 0x06	; 6
      fc:	81 e4       	ldi	r24, 0x41	; 65
      fe:	92 e0       	ldi	r25, 0x02	; 2
     100:	0e 94 2a 18 	call	0x3054	; 0x3054 <USART_SendCmd>
     104:	08 95       	ret

00000106 <CAM_SetZoomVTele>:
// 	USART_SendCmd(g_stCameraCmd.pCmd, g_stCameraCmd.CmdLen);
// }

void CAM_SetZoomVTele(void)
{
	g_stCameraCmd = AllCamCmd[CAM_Zoom_VTele];
     106:	8e e2       	ldi	r24, 0x2E	; 46
     108:	e5 e7       	ldi	r30, 0x75	; 117
     10a:	f3 e0       	ldi	r31, 0x03	; 3
     10c:	df 01       	movw	r26, r30
     10e:	98 2f       	mov	r25, r24
     110:	1d 92       	st	X+, r1
     112:	9a 95       	dec	r25
     114:	e9 f7       	brne	.-6      	; 0x110 <CAM_SetZoomVTele+0xa>
     116:	df 01       	movw	r26, r30
     118:	1d 92       	st	X+, r1
     11a:	8a 95       	dec	r24
     11c:	e9 f7       	brne	.-6      	; 0x118 <CAM_SetZoomVTele+0x12>
     11e:	8b e3       	ldi	r24, 0x3B	; 59
     120:	92 e0       	ldi	r25, 0x02	; 2
     122:	91 83       	std	Z+1, r25	; 0x01
     124:	80 83       	st	Z, r24
     126:	86 e0       	ldi	r24, 0x06	; 6
     128:	80 93 77 03 	sts	0x0377, r24
     12c:	81 e0       	ldi	r24, 0x01	; 1
     12e:	80 93 78 03 	sts	0x0378, r24
	USART_SendCmd(g_stCameraCmd.pCmd, g_stCameraCmd.CmdLen);
     132:	66 e0       	ldi	r22, 0x06	; 6
     134:	8b e3       	ldi	r24, 0x3B	; 59
     136:	92 e0       	ldi	r25, 0x02	; 2
     138:	0e 94 2a 18 	call	0x3054	; 0x3054 <USART_SendCmd>
     13c:	08 95       	ret

0000013e <CAM_SetZoomVWide>:
}

void CAM_SetZoomVWide(void)
{
	g_stCameraCmd = AllCamCmd[CAM_Zoom_VWide];
     13e:	8e e2       	ldi	r24, 0x2E	; 46
     140:	e5 e7       	ldi	r30, 0x75	; 117
     142:	f3 e0       	ldi	r31, 0x03	; 3
     144:	df 01       	movw	r26, r30
     146:	98 2f       	mov	r25, r24
     148:	1d 92       	st	X+, r1
     14a:	9a 95       	dec	r25
     14c:	e9 f7       	brne	.-6      	; 0x148 <CAM_SetZoomVWide+0xa>
     14e:	df 01       	movw	r26, r30
     150:	1d 92       	st	X+, r1
     152:	8a 95       	dec	r24
     154:	e9 f7       	brne	.-6      	; 0x150 <CAM_SetZoomVWide+0x12>
     156:	85 e3       	ldi	r24, 0x35	; 53
     158:	92 e0       	ldi	r25, 0x02	; 2
     15a:	91 83       	std	Z+1, r25	; 0x01
     15c:	80 83       	st	Z, r24
     15e:	86 e0       	ldi	r24, 0x06	; 6
     160:	80 93 77 03 	sts	0x0377, r24
     164:	81 e0       	ldi	r24, 0x01	; 1
     166:	80 93 78 03 	sts	0x0378, r24
	USART_SendCmd(g_stCameraCmd.pCmd, g_stCameraCmd.CmdLen);
     16a:	66 e0       	ldi	r22, 0x06	; 6
     16c:	85 e3       	ldi	r24, 0x35	; 53
     16e:	92 e0       	ldi	r25, 0x02	; 2
     170:	0e 94 2a 18 	call	0x3054	; 0x3054 <USART_SendCmd>
     174:	08 95       	ret

00000176 <CAM_SetZoomDirect>:
}

void CAM_SetZoomDirect(void)
{
     176:	cf 93       	push	r28
     178:	df 93       	push	r29
	g_stCameraCmd = AllCamCmd[CAM_Zoom_Direct];
     17a:	2e e2       	ldi	r18, 0x2E	; 46
     17c:	a5 e7       	ldi	r26, 0x75	; 117
     17e:	b3 e0       	ldi	r27, 0x03	; 3
     180:	ed 01       	movw	r28, r26
     182:	e2 2f       	mov	r30, r18
     184:	19 92       	st	Y+, r1
     186:	ea 95       	dec	r30
     188:	e9 f7       	brne	.-6      	; 0x184 <CAM_SetZoomDirect+0xe>
     18a:	ec e2       	ldi	r30, 0x2C	; 44
     18c:	f2 e0       	ldi	r31, 0x02	; 2
     18e:	ed 01       	movw	r28, r26
     190:	19 92       	st	Y+, r1
     192:	2a 95       	dec	r18
     194:	e9 f7       	brne	.-6      	; 0x190 <CAM_SetZoomDirect+0x1a>
     196:	ed 93       	st	X+, r30
     198:	fc 93       	st	X, r31
     19a:	29 e0       	ldi	r18, 0x09	; 9
     19c:	20 93 77 03 	sts	0x0377, r18
     1a0:	21 e0       	ldi	r18, 0x01	; 1
     1a2:	20 93 78 03 	sts	0x0378, r18
	//9
	g_stStatusCmd.uiZoomPos = uiZoomRatioTable[g_stStatusCmd.uiModeID%_MAX_ZOOM_PARA_NUM][g_stStatusCmd.uiXRate];
     1a6:	20 91 a5 03 	lds	r18, 0x03A5
     1aa:	82 2f       	mov	r24, r18
     1ac:	81 70       	andi	r24, 0x01	; 1
     1ae:	90 e0       	ldi	r25, 0x00	; 0
     1b0:	20 91 ac 03 	lds	r18, 0x03AC
     1b4:	34 e3       	ldi	r19, 0x34	; 52
     1b6:	38 9f       	mul	r19, r24
     1b8:	d0 01       	movw	r26, r0
     1ba:	39 9f       	mul	r19, r25
     1bc:	b0 0d       	add	r27, r0
     1be:	11 24       	eor	r1, r1
     1c0:	a2 0f       	add	r26, r18
     1c2:	b1 1d       	adc	r27, r1
     1c4:	aa 0f       	add	r26, r26
     1c6:	bb 1f       	adc	r27, r27
     1c8:	ab 58       	subi	r26, 0x8B	; 139
     1ca:	bd 4f       	sbci	r27, 0xFD	; 253
     1cc:	8d 91       	ld	r24, X+
     1ce:	9c 91       	ld	r25, X
     1d0:	11 97       	sbiw	r26, 0x01	; 1
     1d2:	90 93 b7 03 	sts	0x03B7, r25
     1d6:	80 93 b6 03 	sts	0x03B6, r24
	
	g_stCameraCmd.pCmd[4] = (uiZoomRatioTable[g_stStatusCmd.uiModeID%_MAX_ZOOM_PARA_NUM][g_stStatusCmd.uiXRate]&0xF000)/0x1000;
     1da:	9c 01       	movw	r18, r24
     1dc:	22 27       	eor	r18, r18
     1de:	30 7f       	andi	r19, 0xF0	; 240
     1e0:	23 2f       	mov	r18, r19
     1e2:	22 95       	swap	r18
     1e4:	2f 70       	andi	r18, 0x0F	; 15
     1e6:	24 83       	std	Z+4, r18	; 0x04
	g_stCameraCmd.pCmd[5] = (uiZoomRatioTable[g_stStatusCmd.uiModeID%_MAX_ZOOM_PARA_NUM][g_stStatusCmd.uiXRate]&0x0F00)/0x100;
     1e8:	9c 01       	movw	r18, r24
     1ea:	22 27       	eor	r18, r18
     1ec:	3f 70       	andi	r19, 0x0F	; 15
     1ee:	35 83       	std	Z+5, r19	; 0x05
	g_stCameraCmd.pCmd[6] = (uiZoomRatioTable[g_stStatusCmd.uiModeID%_MAX_ZOOM_PARA_NUM][g_stStatusCmd.uiXRate]&0x00F0)/0x10;
     1f0:	80 7f       	andi	r24, 0xF0	; 240
     1f2:	99 27       	eor	r25, r25
     1f4:	92 95       	swap	r25
     1f6:	82 95       	swap	r24
     1f8:	8f 70       	andi	r24, 0x0F	; 15
     1fa:	89 27       	eor	r24, r25
     1fc:	9f 70       	andi	r25, 0x0F	; 15
     1fe:	89 27       	eor	r24, r25
     200:	86 83       	std	Z+6, r24	; 0x06
	g_stCameraCmd.pCmd[7] = (uiZoomRatioTable[g_stStatusCmd.uiModeID%_MAX_ZOOM_PARA_NUM][g_stStatusCmd.uiXRate]&0x000F)/0x1;
     202:	8c 91       	ld	r24, X
     204:	8f 70       	andi	r24, 0x0F	; 15
     206:	87 83       	std	Z+7, r24	; 0x07
	USART_SendCmd(g_stCameraCmd.pCmd, g_stCameraCmd.CmdLen);
     208:	69 e0       	ldi	r22, 0x09	; 9
     20a:	cf 01       	movw	r24, r30
     20c:	0e 94 2a 18 	call	0x3054	; 0x3054 <USART_SendCmd>
	
	//_delay_ms(300);
}
     210:	df 91       	pop	r29
     212:	cf 91       	pop	r28
     214:	08 95       	ret

00000216 <CAM_SetDZoomOn>:
	
	//_delay_ms(300);
}
void CAM_SetDZoomOn(void)
{
	g_stCameraCmd = AllCamCmd[CAM_DZoom_On];
     216:	8e e2       	ldi	r24, 0x2E	; 46
     218:	e5 e7       	ldi	r30, 0x75	; 117
     21a:	f3 e0       	ldi	r31, 0x03	; 3
     21c:	df 01       	movw	r26, r30
     21e:	98 2f       	mov	r25, r24
     220:	1d 92       	st	X+, r1
     222:	9a 95       	dec	r25
     224:	e9 f7       	brne	.-6      	; 0x220 <CAM_SetDZoomOn+0xa>
     226:	df 01       	movw	r26, r30
     228:	1d 92       	st	X+, r1
     22a:	8a 95       	dec	r24
     22c:	e9 f7       	brne	.-6      	; 0x228 <CAM_SetDZoomOn+0x12>
     22e:	86 e2       	ldi	r24, 0x26	; 38
     230:	92 e0       	ldi	r25, 0x02	; 2
     232:	91 83       	std	Z+1, r25	; 0x01
     234:	80 83       	st	Z, r24
     236:	86 e0       	ldi	r24, 0x06	; 6
     238:	80 93 77 03 	sts	0x0377, r24
     23c:	81 e0       	ldi	r24, 0x01	; 1
     23e:	80 93 78 03 	sts	0x0378, r24
	USART_SendCmd(g_stCameraCmd.pCmd, g_stCameraCmd.CmdLen);
     242:	66 e0       	ldi	r22, 0x06	; 6
     244:	86 e2       	ldi	r24, 0x26	; 38
     246:	92 e0       	ldi	r25, 0x02	; 2
     248:	0e 94 2a 18 	call	0x3054	; 0x3054 <USART_SendCmd>
     24c:	08 95       	ret

0000024e <CAM_SetStopFocus>:
}

void CAM_SetStopFocus(void)
{
	g_stCameraCmd = AllCamCmd[CAM_Focus_Stop];
     24e:	8e e2       	ldi	r24, 0x2E	; 46
     250:	e5 e7       	ldi	r30, 0x75	; 117
     252:	f3 e0       	ldi	r31, 0x03	; 3
     254:	df 01       	movw	r26, r30
     256:	98 2f       	mov	r25, r24
     258:	1d 92       	st	X+, r1
     25a:	9a 95       	dec	r25
     25c:	e9 f7       	brne	.-6      	; 0x258 <CAM_SetStopFocus+0xa>
     25e:	df 01       	movw	r26, r30
     260:	1d 92       	st	X+, r1
     262:	8a 95       	dec	r24
     264:	e9 f7       	brne	.-6      	; 0x260 <CAM_SetStopFocus+0x12>
     266:	80 e2       	ldi	r24, 0x20	; 32
     268:	92 e0       	ldi	r25, 0x02	; 2
     26a:	91 83       	std	Z+1, r25	; 0x01
     26c:	80 83       	st	Z, r24
     26e:	86 e0       	ldi	r24, 0x06	; 6
     270:	80 93 77 03 	sts	0x0377, r24
     274:	81 e0       	ldi	r24, 0x01	; 1
     276:	80 93 78 03 	sts	0x0378, r24
	USART_SendCmd(g_stCameraCmd.pCmd, g_stCameraCmd.CmdLen);
     27a:	66 e0       	ldi	r22, 0x06	; 6
     27c:	80 e2       	ldi	r24, 0x20	; 32
     27e:	92 e0       	ldi	r25, 0x02	; 2
     280:	0e 94 2a 18 	call	0x3054	; 0x3054 <USART_SendCmd>
     284:	08 95       	ret

00000286 <CAM_SetSFarFocus>:
}

void CAM_SetSFarFocus(void)
{
	g_stCameraCmd = AllCamCmd[CAM_Focus_SFar];
     286:	8e e2       	ldi	r24, 0x2E	; 46
     288:	e5 e7       	ldi	r30, 0x75	; 117
     28a:	f3 e0       	ldi	r31, 0x03	; 3
     28c:	df 01       	movw	r26, r30
     28e:	98 2f       	mov	r25, r24
     290:	1d 92       	st	X+, r1
     292:	9a 95       	dec	r25
     294:	e9 f7       	brne	.-6      	; 0x290 <CAM_SetSFarFocus+0xa>
     296:	df 01       	movw	r26, r30
     298:	1d 92       	st	X+, r1
     29a:	8a 95       	dec	r24
     29c:	e9 f7       	brne	.-6      	; 0x298 <CAM_SetSFarFocus+0x12>
     29e:	8a e1       	ldi	r24, 0x1A	; 26
     2a0:	92 e0       	ldi	r25, 0x02	; 2
     2a2:	91 83       	std	Z+1, r25	; 0x01
     2a4:	80 83       	st	Z, r24
     2a6:	86 e0       	ldi	r24, 0x06	; 6
     2a8:	80 93 77 03 	sts	0x0377, r24
     2ac:	81 e0       	ldi	r24, 0x01	; 1
     2ae:	80 93 78 03 	sts	0x0378, r24
	USART_SendCmd(g_stCameraCmd.pCmd, g_stCameraCmd.CmdLen);
     2b2:	66 e0       	ldi	r22, 0x06	; 6
     2b4:	8a e1       	ldi	r24, 0x1A	; 26
     2b6:	92 e0       	ldi	r25, 0x02	; 2
     2b8:	0e 94 2a 18 	call	0x3054	; 0x3054 <USART_SendCmd>
     2bc:	08 95       	ret

000002be <CAM_SetSNearFocus>:
}

void CAM_SetSNearFocus(void)
{
	g_stCameraCmd = AllCamCmd[CAM_Focus_SNear];
     2be:	8e e2       	ldi	r24, 0x2E	; 46
     2c0:	e5 e7       	ldi	r30, 0x75	; 117
     2c2:	f3 e0       	ldi	r31, 0x03	; 3
     2c4:	df 01       	movw	r26, r30
     2c6:	98 2f       	mov	r25, r24
     2c8:	1d 92       	st	X+, r1
     2ca:	9a 95       	dec	r25
     2cc:	e9 f7       	brne	.-6      	; 0x2c8 <CAM_SetSNearFocus+0xa>
     2ce:	df 01       	movw	r26, r30
     2d0:	1d 92       	st	X+, r1
     2d2:	8a 95       	dec	r24
     2d4:	e9 f7       	brne	.-6      	; 0x2d0 <CAM_SetSNearFocus+0x12>
     2d6:	84 e1       	ldi	r24, 0x14	; 20
     2d8:	92 e0       	ldi	r25, 0x02	; 2
     2da:	91 83       	std	Z+1, r25	; 0x01
     2dc:	80 83       	st	Z, r24
     2de:	86 e0       	ldi	r24, 0x06	; 6
     2e0:	80 93 77 03 	sts	0x0377, r24
     2e4:	81 e0       	ldi	r24, 0x01	; 1
     2e6:	80 93 78 03 	sts	0x0378, r24
	USART_SendCmd(g_stCameraCmd.pCmd, g_stCameraCmd.CmdLen);
     2ea:	66 e0       	ldi	r22, 0x06	; 6
     2ec:	84 e1       	ldi	r24, 0x14	; 20
     2ee:	92 e0       	ldi	r25, 0x02	; 2
     2f0:	0e 94 2a 18 	call	0x3054	; 0x3054 <USART_SendCmd>
     2f4:	08 95       	ret

000002f6 <CAM_SetAutoFocus>:
}

void CAM_SetAutoFocus(void)
{
	g_stCameraCmd = AllCamCmd[CAM_Focus_Auto];
     2f6:	8e e2       	ldi	r24, 0x2E	; 46
     2f8:	e5 e7       	ldi	r30, 0x75	; 117
     2fa:	f3 e0       	ldi	r31, 0x03	; 3
     2fc:	df 01       	movw	r26, r30
     2fe:	98 2f       	mov	r25, r24
     300:	1d 92       	st	X+, r1
     302:	9a 95       	dec	r25
     304:	e9 f7       	brne	.-6      	; 0x300 <CAM_SetAutoFocus+0xa>
     306:	df 01       	movw	r26, r30
     308:	1d 92       	st	X+, r1
     30a:	8a 95       	dec	r24
     30c:	e9 f7       	brne	.-6      	; 0x308 <CAM_SetAutoFocus+0x12>
     30e:	8e e0       	ldi	r24, 0x0E	; 14
     310:	92 e0       	ldi	r25, 0x02	; 2
     312:	91 83       	std	Z+1, r25	; 0x01
     314:	80 83       	st	Z, r24
     316:	86 e0       	ldi	r24, 0x06	; 6
     318:	80 93 77 03 	sts	0x0377, r24
     31c:	81 e0       	ldi	r24, 0x01	; 1
     31e:	80 93 78 03 	sts	0x0378, r24
	USART_SendCmd(g_stCameraCmd.pCmd, g_stCameraCmd.CmdLen);
     322:	66 e0       	ldi	r22, 0x06	; 6
     324:	8e e0       	ldi	r24, 0x0E	; 14
     326:	92 e0       	ldi	r25, 0x02	; 2
     328:	0e 94 2a 18 	call	0x3054	; 0x3054 <USART_SendCmd>
	
	g_stStatusCmd.FocusMode = _FOCUS_MODE_AUTO;
     32c:	10 92 b5 03 	sts	0x03B5, r1
     330:	08 95       	ret

00000332 <CAM_SetManualFocus>:
}

void CAM_SetManualFocus(void)
{
     332:	cf 93       	push	r28
	g_stCameraCmd = AllCamCmd[CAM_Focus_Manual];
     334:	8e e2       	ldi	r24, 0x2E	; 46
     336:	e5 e7       	ldi	r30, 0x75	; 117
     338:	f3 e0       	ldi	r31, 0x03	; 3
     33a:	df 01       	movw	r26, r30
     33c:	98 2f       	mov	r25, r24
     33e:	1d 92       	st	X+, r1
     340:	9a 95       	dec	r25
     342:	e9 f7       	brne	.-6      	; 0x33e <CAM_SetManualFocus+0xc>
     344:	c1 e0       	ldi	r28, 0x01	; 1
     346:	df 01       	movw	r26, r30
     348:	1d 92       	st	X+, r1
     34a:	8a 95       	dec	r24
     34c:	e9 f7       	brne	.-6      	; 0x348 <CAM_SetManualFocus+0x16>
     34e:	88 e0       	ldi	r24, 0x08	; 8
     350:	92 e0       	ldi	r25, 0x02	; 2
     352:	91 83       	std	Z+1, r25	; 0x01
     354:	80 83       	st	Z, r24
     356:	86 e0       	ldi	r24, 0x06	; 6
     358:	80 93 77 03 	sts	0x0377, r24
     35c:	c0 93 78 03 	sts	0x0378, r28
	USART_SendCmd(g_stCameraCmd.pCmd, g_stCameraCmd.CmdLen);
     360:	66 e0       	ldi	r22, 0x06	; 6
     362:	88 e0       	ldi	r24, 0x08	; 8
     364:	92 e0       	ldi	r25, 0x02	; 2
     366:	0e 94 2a 18 	call	0x3054	; 0x3054 <USART_SendCmd>
	
	g_stStatusCmd.FocusMode = _FOCUS_MODE_MANUAL;
     36a:	c0 93 b5 03 	sts	0x03B5, r28
}
     36e:	cf 91       	pop	r28
     370:	08 95       	ret

00000372 <CAM_SetNormalAF>:
// 	USART_SendCmd(g_stCameraCmd.pCmd, g_stCameraCmd.CmdLen);
// }

void CAM_SetNormalAF(void)
{
	g_stCameraCmd = AllCamCmd[CAM_Normal_AF];
     372:	8e e2       	ldi	r24, 0x2E	; 46
     374:	e5 e7       	ldi	r30, 0x75	; 117
     376:	f3 e0       	ldi	r31, 0x03	; 3
     378:	df 01       	movw	r26, r30
     37a:	98 2f       	mov	r25, r24
     37c:	1d 92       	st	X+, r1
     37e:	9a 95       	dec	r25
     380:	e9 f7       	brne	.-6      	; 0x37c <CAM_SetNormalAF+0xa>
     382:	df 01       	movw	r26, r30
     384:	1d 92       	st	X+, r1
     386:	8a 95       	dec	r24
     388:	e9 f7       	brne	.-6      	; 0x384 <CAM_SetNormalAF+0x12>
     38a:	82 e0       	ldi	r24, 0x02	; 2
     38c:	92 e0       	ldi	r25, 0x02	; 2
     38e:	91 83       	std	Z+1, r25	; 0x01
     390:	80 83       	st	Z, r24
     392:	86 e0       	ldi	r24, 0x06	; 6
     394:	80 93 77 03 	sts	0x0377, r24
     398:	81 e0       	ldi	r24, 0x01	; 1
     39a:	80 93 78 03 	sts	0x0378, r24
	USART_SendCmd(g_stCameraCmd.pCmd, g_stCameraCmd.CmdLen);
     39e:	66 e0       	ldi	r22, 0x06	; 6
     3a0:	82 e0       	ldi	r24, 0x02	; 2
     3a2:	92 e0       	ldi	r25, 0x02	; 2
     3a4:	0e 94 2a 18 	call	0x3054	; 0x3054 <USART_SendCmd>
     3a8:	08 95       	ret

000003aa <CAM_SetWBATW>:
	USART_SendCmd(g_stCameraCmd.pCmd, g_stCameraCmd.CmdLen);
}

void CAM_SetWBATW(void)
{
	g_stCameraCmd = AllCamCmd[CAM_WB_ATW];
     3aa:	8e e2       	ldi	r24, 0x2E	; 46
     3ac:	e5 e7       	ldi	r30, 0x75	; 117
     3ae:	f3 e0       	ldi	r31, 0x03	; 3
     3b0:	df 01       	movw	r26, r30
     3b2:	98 2f       	mov	r25, r24
     3b4:	1d 92       	st	X+, r1
     3b6:	9a 95       	dec	r25
     3b8:	e9 f7       	brne	.-6      	; 0x3b4 <CAM_SetWBATW+0xa>
     3ba:	df 01       	movw	r26, r30
     3bc:	1d 92       	st	X+, r1
     3be:	8a 95       	dec	r24
     3c0:	e9 f7       	brne	.-6      	; 0x3bc <CAM_SetWBATW+0x12>
     3c2:	8c ef       	ldi	r24, 0xFC	; 252
     3c4:	91 e0       	ldi	r25, 0x01	; 1
     3c6:	91 83       	std	Z+1, r25	; 0x01
     3c8:	80 83       	st	Z, r24
     3ca:	86 e0       	ldi	r24, 0x06	; 6
     3cc:	80 93 77 03 	sts	0x0377, r24
     3d0:	81 e0       	ldi	r24, 0x01	; 1
     3d2:	80 93 78 03 	sts	0x0378, r24
	USART_SendCmd(g_stCameraCmd.pCmd, g_stCameraCmd.CmdLen);
     3d6:	66 e0       	ldi	r22, 0x06	; 6
     3d8:	8c ef       	ldi	r24, 0xFC	; 252
     3da:	91 e0       	ldi	r25, 0x01	; 1
     3dc:	0e 94 2a 18 	call	0x3054	; 0x3054 <USART_SendCmd>
     3e0:	08 95       	ret

000003e2 <CAM_SetWBMaunal>:
}

void CAM_SetWBMaunal(void)
{
	g_stCameraCmd = AllCamCmd[CAM_WB_Maunal];
     3e2:	8e e2       	ldi	r24, 0x2E	; 46
     3e4:	e5 e7       	ldi	r30, 0x75	; 117
     3e6:	f3 e0       	ldi	r31, 0x03	; 3
     3e8:	df 01       	movw	r26, r30
     3ea:	98 2f       	mov	r25, r24
     3ec:	1d 92       	st	X+, r1
     3ee:	9a 95       	dec	r25
     3f0:	e9 f7       	brne	.-6      	; 0x3ec <CAM_SetWBMaunal+0xa>
     3f2:	df 01       	movw	r26, r30
     3f4:	1d 92       	st	X+, r1
     3f6:	8a 95       	dec	r24
     3f8:	e9 f7       	brne	.-6      	; 0x3f4 <CAM_SetWBMaunal+0x12>
     3fa:	86 ef       	ldi	r24, 0xF6	; 246
     3fc:	91 e0       	ldi	r25, 0x01	; 1
     3fe:	91 83       	std	Z+1, r25	; 0x01
     400:	80 83       	st	Z, r24
     402:	86 e0       	ldi	r24, 0x06	; 6
     404:	80 93 77 03 	sts	0x0377, r24
     408:	81 e0       	ldi	r24, 0x01	; 1
     40a:	80 93 78 03 	sts	0x0378, r24
	USART_SendCmd(g_stCameraCmd.pCmd, g_stCameraCmd.CmdLen);
     40e:	66 e0       	ldi	r22, 0x06	; 6
     410:	86 ef       	ldi	r24, 0xF6	; 246
     412:	91 e0       	ldi	r25, 0x01	; 1
     414:	0e 94 2a 18 	call	0x3054	; 0x3054 <USART_SendCmd>
     418:	08 95       	ret

0000041a <CAM_SetRGainDirect>:
	g_stCameraCmd = AllCamCmd[CAM_RGain_Down];
	USART_SendCmd(g_stCameraCmd.pCmd, g_stCameraCmd.CmdLen);
}

void CAM_SetRGainDirect(uint8_t uiRGain)
{
     41a:	cf 93       	push	r28
     41c:	df 93       	push	r29
	g_stCameraCmd = AllCamCmd[CAM_RGain_Direct];
     41e:	9e e2       	ldi	r25, 0x2E	; 46
     420:	a5 e7       	ldi	r26, 0x75	; 117
     422:	b3 e0       	ldi	r27, 0x03	; 3
     424:	ed 01       	movw	r28, r26
     426:	e9 2f       	mov	r30, r25
     428:	19 92       	st	Y+, r1
     42a:	ea 95       	dec	r30
     42c:	e9 f7       	brne	.-6      	; 0x428 <CAM_SetRGainDirect+0xe>
     42e:	ed ee       	ldi	r30, 0xED	; 237
     430:	f1 e0       	ldi	r31, 0x01	; 1
     432:	ed 01       	movw	r28, r26
     434:	19 92       	st	Y+, r1
     436:	9a 95       	dec	r25
     438:	e9 f7       	brne	.-6      	; 0x434 <CAM_SetRGainDirect+0x1a>
     43a:	ed 93       	st	X+, r30
     43c:	fc 93       	st	X, r31
     43e:	99 e0       	ldi	r25, 0x09	; 9
     440:	90 93 77 03 	sts	0x0377, r25
     444:	91 e0       	ldi	r25, 0x01	; 1
     446:	90 93 78 03 	sts	0x0378, r25
	//9
	g_stCameraCmd.pCmd[6] = uiRGain/0x10;
     44a:	98 2f       	mov	r25, r24
     44c:	92 95       	swap	r25
     44e:	9f 70       	andi	r25, 0x0F	; 15
     450:	96 83       	std	Z+6, r25	; 0x06
	g_stCameraCmd.pCmd[7] = uiRGain%0x10;
     452:	8f 70       	andi	r24, 0x0F	; 15
     454:	87 83       	std	Z+7, r24	; 0x07
	USART_SendCmd(g_stCameraCmd.pCmd, g_stCameraCmd.CmdLen);
     456:	69 e0       	ldi	r22, 0x09	; 9
     458:	cf 01       	movw	r24, r30
     45a:	0e 94 2a 18 	call	0x3054	; 0x3054 <USART_SendCmd>
}
     45e:	df 91       	pop	r29
     460:	cf 91       	pop	r28
     462:	08 95       	ret

00000464 <CAM_SetBGainDirect>:
	g_stCameraCmd = AllCamCmd[CAM_BGain_Down];
	USART_SendCmd(g_stCameraCmd.pCmd, g_stCameraCmd.CmdLen);
}

void CAM_SetBGainDirect(uint8_t uiBGain)
{
     464:	cf 93       	push	r28
     466:	df 93       	push	r29
	g_stCameraCmd = AllCamCmd[CAM_BGain_Direct];
     468:	9e e2       	ldi	r25, 0x2E	; 46
     46a:	a5 e7       	ldi	r26, 0x75	; 117
     46c:	b3 e0       	ldi	r27, 0x03	; 3
     46e:	ed 01       	movw	r28, r26
     470:	e9 2f       	mov	r30, r25
     472:	19 92       	st	Y+, r1
     474:	ea 95       	dec	r30
     476:	e9 f7       	brne	.-6      	; 0x472 <CAM_SetBGainDirect+0xe>
     478:	e4 ee       	ldi	r30, 0xE4	; 228
     47a:	f1 e0       	ldi	r31, 0x01	; 1
     47c:	ed 01       	movw	r28, r26
     47e:	19 92       	st	Y+, r1
     480:	9a 95       	dec	r25
     482:	e9 f7       	brne	.-6      	; 0x47e <CAM_SetBGainDirect+0x1a>
     484:	ed 93       	st	X+, r30
     486:	fc 93       	st	X, r31
     488:	99 e0       	ldi	r25, 0x09	; 9
     48a:	90 93 77 03 	sts	0x0377, r25
     48e:	91 e0       	ldi	r25, 0x01	; 1
     490:	90 93 78 03 	sts	0x0378, r25
	//9
	g_stCameraCmd.pCmd[6] = uiBGain/0x10;
     494:	98 2f       	mov	r25, r24
     496:	92 95       	swap	r25
     498:	9f 70       	andi	r25, 0x0F	; 15
     49a:	96 83       	std	Z+6, r25	; 0x06
	g_stCameraCmd.pCmd[7] = uiBGain%0x10;
     49c:	8f 70       	andi	r24, 0x0F	; 15
     49e:	87 83       	std	Z+7, r24	; 0x07
	USART_SendCmd(g_stCameraCmd.pCmd, g_stCameraCmd.CmdLen);
     4a0:	69 e0       	ldi	r22, 0x09	; 9
     4a2:	cf 01       	movw	r24, r30
     4a4:	0e 94 2a 18 	call	0x3054	; 0x3054 <USART_SendCmd>
}
     4a8:	df 91       	pop	r29
     4aa:	cf 91       	pop	r28
     4ac:	08 95       	ret

000004ae <CAM_SetApertureReset>:

void CAM_SetApertureReset(void)
{
	g_stCameraCmd = AllCamCmd[CAM_Aperture_Reset];
     4ae:	8e e2       	ldi	r24, 0x2E	; 46
     4b0:	e5 e7       	ldi	r30, 0x75	; 117
     4b2:	f3 e0       	ldi	r31, 0x03	; 3
     4b4:	df 01       	movw	r26, r30
     4b6:	98 2f       	mov	r25, r24
     4b8:	1d 92       	st	X+, r1
     4ba:	9a 95       	dec	r25
     4bc:	e9 f7       	brne	.-6      	; 0x4b8 <CAM_SetApertureReset+0xa>
     4be:	df 01       	movw	r26, r30
     4c0:	1d 92       	st	X+, r1
     4c2:	8a 95       	dec	r24
     4c4:	e9 f7       	brne	.-6      	; 0x4c0 <CAM_SetApertureReset+0x12>
     4c6:	8e ed       	ldi	r24, 0xDE	; 222
     4c8:	91 e0       	ldi	r25, 0x01	; 1
     4ca:	91 83       	std	Z+1, r25	; 0x01
     4cc:	80 83       	st	Z, r24
     4ce:	86 e0       	ldi	r24, 0x06	; 6
     4d0:	80 93 77 03 	sts	0x0377, r24
     4d4:	81 e0       	ldi	r24, 0x01	; 1
     4d6:	80 93 78 03 	sts	0x0378, r24
	USART_SendCmd(g_stCameraCmd.pCmd, g_stCameraCmd.CmdLen);
     4da:	66 e0       	ldi	r22, 0x06	; 6
     4dc:	8e ed       	ldi	r24, 0xDE	; 222
     4de:	91 e0       	ldi	r25, 0x01	; 1
     4e0:	0e 94 2a 18 	call	0x3054	; 0x3054 <USART_SendCmd>
     4e4:	08 95       	ret

000004e6 <CAM_SetApertureDirect>:
}

void CAM_SetApertureDirect(void)
{
     4e6:	cf 93       	push	r28
     4e8:	df 93       	push	r29
	g_stCameraCmd = AllCamCmd[CAM_Aperture_Direct];
     4ea:	8e e2       	ldi	r24, 0x2E	; 46
     4ec:	a5 e7       	ldi	r26, 0x75	; 117
     4ee:	b3 e0       	ldi	r27, 0x03	; 3
     4f0:	ed 01       	movw	r28, r26
     4f2:	e8 2f       	mov	r30, r24
     4f4:	19 92       	st	Y+, r1
     4f6:	ea 95       	dec	r30
     4f8:	e9 f7       	brne	.-6      	; 0x4f4 <CAM_SetApertureDirect+0xe>
     4fa:	e5 ed       	ldi	r30, 0xD5	; 213
     4fc:	f1 e0       	ldi	r31, 0x01	; 1
     4fe:	ed 01       	movw	r28, r26
     500:	19 92       	st	Y+, r1
     502:	8a 95       	dec	r24
     504:	e9 f7       	brne	.-6      	; 0x500 <__stack+0x1>
     506:	ed 93       	st	X+, r30
     508:	fc 93       	st	X, r31
     50a:	89 e0       	ldi	r24, 0x09	; 9
     50c:	80 93 77 03 	sts	0x0377, r24
     510:	81 e0       	ldi	r24, 0x01	; 1
     512:	80 93 78 03 	sts	0x0378, r24
	//9
	g_stCameraCmd.pCmd[6] = g_stStatusCmd.uiApertureGain/0x10;
     516:	80 91 b4 03 	lds	r24, 0x03B4
     51a:	98 2f       	mov	r25, r24
     51c:	92 95       	swap	r25
     51e:	9f 70       	andi	r25, 0x0F	; 15
     520:	96 83       	std	Z+6, r25	; 0x06
	g_stCameraCmd.pCmd[7] = g_stStatusCmd.uiApertureGain%0x10;
     522:	8f 70       	andi	r24, 0x0F	; 15
     524:	87 83       	std	Z+7, r24	; 0x07
	USART_SendCmd(g_stCameraCmd.pCmd, g_stCameraCmd.CmdLen);
     526:	69 e0       	ldi	r22, 0x09	; 9
     528:	cf 01       	movw	r24, r30
     52a:	0e 94 2a 18 	call	0x3054	; 0x3054 <USART_SendCmd>
}
     52e:	df 91       	pop	r29
     530:	cf 91       	pop	r28
     532:	08 95       	ret

00000534 <CAM_SetFreezeOn>:
// 	USART_SendCmd(g_stCameraCmd.pCmd, g_stCameraCmd.CmdLen);
// }

void CAM_SetFreezeOn(void)
{
	g_stCameraCmd = AllCamCmd[CAM_Freeze_On];
     534:	8e e2       	ldi	r24, 0x2E	; 46
     536:	e5 e7       	ldi	r30, 0x75	; 117
     538:	f3 e0       	ldi	r31, 0x03	; 3
     53a:	df 01       	movw	r26, r30
     53c:	98 2f       	mov	r25, r24
     53e:	1d 92       	st	X+, r1
     540:	9a 95       	dec	r25
     542:	e9 f7       	brne	.-6      	; 0x53e <CAM_SetFreezeOn+0xa>
     544:	df 01       	movw	r26, r30
     546:	1d 92       	st	X+, r1
     548:	8a 95       	dec	r24
     54a:	e9 f7       	brne	.-6      	; 0x546 <CAM_SetFreezeOn+0x12>
     54c:	8f ec       	ldi	r24, 0xCF	; 207
     54e:	91 e0       	ldi	r25, 0x01	; 1
     550:	91 83       	std	Z+1, r25	; 0x01
     552:	80 83       	st	Z, r24
     554:	86 e0       	ldi	r24, 0x06	; 6
     556:	80 93 77 03 	sts	0x0377, r24
     55a:	81 e0       	ldi	r24, 0x01	; 1
     55c:	80 93 78 03 	sts	0x0378, r24
	USART_SendCmd(g_stCameraCmd.pCmd, g_stCameraCmd.CmdLen);
     560:	66 e0       	ldi	r22, 0x06	; 6
     562:	8f ec       	ldi	r24, 0xCF	; 207
     564:	91 e0       	ldi	r25, 0x01	; 1
     566:	0e 94 2a 18 	call	0x3054	; 0x3054 <USART_SendCmd>
     56a:	08 95       	ret

0000056c <CAM_SetFreezeOff>:
}

void CAM_SetFreezeOff(void)
{
	g_stCameraCmd = AllCamCmd[CAM_Freeze_Off];
     56c:	8e e2       	ldi	r24, 0x2E	; 46
     56e:	e5 e7       	ldi	r30, 0x75	; 117
     570:	f3 e0       	ldi	r31, 0x03	; 3
     572:	df 01       	movw	r26, r30
     574:	98 2f       	mov	r25, r24
     576:	1d 92       	st	X+, r1
     578:	9a 95       	dec	r25
     57a:	e9 f7       	brne	.-6      	; 0x576 <CAM_SetFreezeOff+0xa>
     57c:	df 01       	movw	r26, r30
     57e:	1d 92       	st	X+, r1
     580:	8a 95       	dec	r24
     582:	e9 f7       	brne	.-6      	; 0x57e <CAM_SetFreezeOff+0x12>
     584:	89 ec       	ldi	r24, 0xC9	; 201
     586:	91 e0       	ldi	r25, 0x01	; 1
     588:	91 83       	std	Z+1, r25	; 0x01
     58a:	80 83       	st	Z, r24
     58c:	86 e0       	ldi	r24, 0x06	; 6
     58e:	80 93 77 03 	sts	0x0377, r24
     592:	81 e0       	ldi	r24, 0x01	; 1
     594:	80 93 78 03 	sts	0x0378, r24
	USART_SendCmd(g_stCameraCmd.pCmd, g_stCameraCmd.CmdLen);
     598:	66 e0       	ldi	r22, 0x06	; 6
     59a:	89 ec       	ldi	r24, 0xC9	; 201
     59c:	91 e0       	ldi	r25, 0x01	; 1
     59e:	0e 94 2a 18 	call	0x3054	; 0x3054 <USART_SendCmd>
     5a2:	08 95       	ret

000005a4 <CAM_SetPicEffectOff>:
}

void CAM_SetPicEffectOff(void)
{
	g_stCameraCmd = AllCamCmd[CAM_PicEffectOff];
     5a4:	8e e2       	ldi	r24, 0x2E	; 46
     5a6:	e5 e7       	ldi	r30, 0x75	; 117
     5a8:	f3 e0       	ldi	r31, 0x03	; 3
     5aa:	df 01       	movw	r26, r30
     5ac:	98 2f       	mov	r25, r24
     5ae:	1d 92       	st	X+, r1
     5b0:	9a 95       	dec	r25
     5b2:	e9 f7       	brne	.-6      	; 0x5ae <CAM_SetPicEffectOff+0xa>
     5b4:	df 01       	movw	r26, r30
     5b6:	1d 92       	st	X+, r1
     5b8:	8a 95       	dec	r24
     5ba:	e9 f7       	brne	.-6      	; 0x5b6 <CAM_SetPicEffectOff+0x12>
     5bc:	83 ec       	ldi	r24, 0xC3	; 195
     5be:	91 e0       	ldi	r25, 0x01	; 1
     5c0:	91 83       	std	Z+1, r25	; 0x01
     5c2:	80 83       	st	Z, r24
     5c4:	86 e0       	ldi	r24, 0x06	; 6
     5c6:	80 93 77 03 	sts	0x0377, r24
     5ca:	81 e0       	ldi	r24, 0x01	; 1
     5cc:	80 93 78 03 	sts	0x0378, r24
	USART_SendCmd(g_stCameraCmd.pCmd, g_stCameraCmd.CmdLen);
     5d0:	66 e0       	ldi	r22, 0x06	; 6
     5d2:	83 ec       	ldi	r24, 0xC3	; 195
     5d4:	91 e0       	ldi	r25, 0x01	; 1
     5d6:	0e 94 2a 18 	call	0x3054	; 0x3054 <USART_SendCmd>
     5da:	08 95       	ret

000005dc <CAM_SetPicEffectBW>:
}

void CAM_SetPicEffectBW(void)
{
	g_stCameraCmd = AllCamCmd[CAM_PicEffectBW];
     5dc:	8e e2       	ldi	r24, 0x2E	; 46
     5de:	e5 e7       	ldi	r30, 0x75	; 117
     5e0:	f3 e0       	ldi	r31, 0x03	; 3
     5e2:	df 01       	movw	r26, r30
     5e4:	98 2f       	mov	r25, r24
     5e6:	1d 92       	st	X+, r1
     5e8:	9a 95       	dec	r25
     5ea:	e9 f7       	brne	.-6      	; 0x5e6 <CAM_SetPicEffectBW+0xa>
     5ec:	df 01       	movw	r26, r30
     5ee:	1d 92       	st	X+, r1
     5f0:	8a 95       	dec	r24
     5f2:	e9 f7       	brne	.-6      	; 0x5ee <CAM_SetPicEffectBW+0x12>
     5f4:	8d eb       	ldi	r24, 0xBD	; 189
     5f6:	91 e0       	ldi	r25, 0x01	; 1
     5f8:	91 83       	std	Z+1, r25	; 0x01
     5fa:	80 83       	st	Z, r24
     5fc:	86 e0       	ldi	r24, 0x06	; 6
     5fe:	80 93 77 03 	sts	0x0377, r24
     602:	81 e0       	ldi	r24, 0x01	; 1
     604:	80 93 78 03 	sts	0x0378, r24
	USART_SendCmd(g_stCameraCmd.pCmd, g_stCameraCmd.CmdLen);
     608:	66 e0       	ldi	r22, 0x06	; 6
     60a:	8d eb       	ldi	r24, 0xBD	; 189
     60c:	91 e0       	ldi	r25, 0x01	; 1
     60e:	0e 94 2a 18 	call	0x3054	; 0x3054 <USART_SendCmd>
     612:	08 95       	ret

00000614 <CAM_SetFlipOn>:
}

void CAM_SetFlipOn(void)
{
	g_stCameraCmd = AllCamCmd[CAM_Flip_On];
     614:	8e e2       	ldi	r24, 0x2E	; 46
     616:	e5 e7       	ldi	r30, 0x75	; 117
     618:	f3 e0       	ldi	r31, 0x03	; 3
     61a:	df 01       	movw	r26, r30
     61c:	98 2f       	mov	r25, r24
     61e:	1d 92       	st	X+, r1
     620:	9a 95       	dec	r25
     622:	e9 f7       	brne	.-6      	; 0x61e <CAM_SetFlipOn+0xa>
     624:	df 01       	movw	r26, r30
     626:	1d 92       	st	X+, r1
     628:	8a 95       	dec	r24
     62a:	e9 f7       	brne	.-6      	; 0x626 <CAM_SetFlipOn+0x12>
     62c:	87 eb       	ldi	r24, 0xB7	; 183
     62e:	91 e0       	ldi	r25, 0x01	; 1
     630:	91 83       	std	Z+1, r25	; 0x01
     632:	80 83       	st	Z, r24
     634:	86 e0       	ldi	r24, 0x06	; 6
     636:	80 93 77 03 	sts	0x0377, r24
     63a:	81 e0       	ldi	r24, 0x01	; 1
     63c:	80 93 78 03 	sts	0x0378, r24
	USART_SendCmd(g_stCameraCmd.pCmd, g_stCameraCmd.CmdLen);
     640:	66 e0       	ldi	r22, 0x06	; 6
     642:	87 eb       	ldi	r24, 0xB7	; 183
     644:	91 e0       	ldi	r25, 0x01	; 1
     646:	0e 94 2a 18 	call	0x3054	; 0x3054 <USART_SendCmd>
     64a:	08 95       	ret

0000064c <CAM_SetFlipOff>:
}

void CAM_SetFlipOff(void)
{
	g_stCameraCmd = AllCamCmd[CAM_Flip_Off];
     64c:	8e e2       	ldi	r24, 0x2E	; 46
     64e:	e5 e7       	ldi	r30, 0x75	; 117
     650:	f3 e0       	ldi	r31, 0x03	; 3
     652:	df 01       	movw	r26, r30
     654:	98 2f       	mov	r25, r24
     656:	1d 92       	st	X+, r1
     658:	9a 95       	dec	r25
     65a:	e9 f7       	brne	.-6      	; 0x656 <CAM_SetFlipOff+0xa>
     65c:	df 01       	movw	r26, r30
     65e:	1d 92       	st	X+, r1
     660:	8a 95       	dec	r24
     662:	e9 f7       	brne	.-6      	; 0x65e <CAM_SetFlipOff+0x12>
     664:	81 eb       	ldi	r24, 0xB1	; 177
     666:	91 e0       	ldi	r25, 0x01	; 1
     668:	91 83       	std	Z+1, r25	; 0x01
     66a:	80 83       	st	Z, r24
     66c:	86 e0       	ldi	r24, 0x06	; 6
     66e:	80 93 77 03 	sts	0x0377, r24
     672:	81 e0       	ldi	r24, 0x01	; 1
     674:	80 93 78 03 	sts	0x0378, r24
	USART_SendCmd(g_stCameraCmd.pCmd, g_stCameraCmd.CmdLen);
     678:	66 e0       	ldi	r22, 0x06	; 6
     67a:	81 eb       	ldi	r24, 0xB1	; 177
     67c:	91 e0       	ldi	r25, 0x01	; 1
     67e:	0e 94 2a 18 	call	0x3054	; 0x3054 <USART_SendCmd>
     682:	08 95       	ret

00000684 <CAM_SetMirrorOn>:
}

void CAM_SetMirrorOn(void)
{
	g_stCameraCmd = AllCamCmd[CAM_Mirror_On];
     684:	8e e2       	ldi	r24, 0x2E	; 46
     686:	e5 e7       	ldi	r30, 0x75	; 117
     688:	f3 e0       	ldi	r31, 0x03	; 3
     68a:	df 01       	movw	r26, r30
     68c:	98 2f       	mov	r25, r24
     68e:	1d 92       	st	X+, r1
     690:	9a 95       	dec	r25
     692:	e9 f7       	brne	.-6      	; 0x68e <CAM_SetMirrorOn+0xa>
     694:	df 01       	movw	r26, r30
     696:	1d 92       	st	X+, r1
     698:	8a 95       	dec	r24
     69a:	e9 f7       	brne	.-6      	; 0x696 <CAM_SetMirrorOn+0x12>
     69c:	8b ea       	ldi	r24, 0xAB	; 171
     69e:	91 e0       	ldi	r25, 0x01	; 1
     6a0:	91 83       	std	Z+1, r25	; 0x01
     6a2:	80 83       	st	Z, r24
     6a4:	86 e0       	ldi	r24, 0x06	; 6
     6a6:	80 93 77 03 	sts	0x0377, r24
     6aa:	81 e0       	ldi	r24, 0x01	; 1
     6ac:	80 93 78 03 	sts	0x0378, r24
	USART_SendCmd(g_stCameraCmd.pCmd, g_stCameraCmd.CmdLen);
     6b0:	66 e0       	ldi	r22, 0x06	; 6
     6b2:	8b ea       	ldi	r24, 0xAB	; 171
     6b4:	91 e0       	ldi	r25, 0x01	; 1
     6b6:	0e 94 2a 18 	call	0x3054	; 0x3054 <USART_SendCmd>
     6ba:	08 95       	ret

000006bc <CAM_SetMirrorOff>:
}

void CAM_SetMirrorOff(void)
{
	g_stCameraCmd = AllCamCmd[CAM_Mirror_Off];
     6bc:	8e e2       	ldi	r24, 0x2E	; 46
     6be:	e5 e7       	ldi	r30, 0x75	; 117
     6c0:	f3 e0       	ldi	r31, 0x03	; 3
     6c2:	df 01       	movw	r26, r30
     6c4:	98 2f       	mov	r25, r24
     6c6:	1d 92       	st	X+, r1
     6c8:	9a 95       	dec	r25
     6ca:	e9 f7       	brne	.-6      	; 0x6c6 <CAM_SetMirrorOff+0xa>
     6cc:	df 01       	movw	r26, r30
     6ce:	1d 92       	st	X+, r1
     6d0:	8a 95       	dec	r24
     6d2:	e9 f7       	brne	.-6      	; 0x6ce <CAM_SetMirrorOff+0x12>
     6d4:	85 ea       	ldi	r24, 0xA5	; 165
     6d6:	91 e0       	ldi	r25, 0x01	; 1
     6d8:	91 83       	std	Z+1, r25	; 0x01
     6da:	80 83       	st	Z, r24
     6dc:	86 e0       	ldi	r24, 0x06	; 6
     6de:	80 93 77 03 	sts	0x0377, r24
     6e2:	81 e0       	ldi	r24, 0x01	; 1
     6e4:	80 93 78 03 	sts	0x0378, r24
	USART_SendCmd(g_stCameraCmd.pCmd, g_stCameraCmd.CmdLen);
     6e8:	66 e0       	ldi	r22, 0x06	; 6
     6ea:	85 ea       	ldi	r24, 0xA5	; 165
     6ec:	91 e0       	ldi	r25, 0x01	; 1
     6ee:	0e 94 2a 18 	call	0x3054	; 0x3054 <USART_SendCmd>
     6f2:	08 95       	ret

000006f4 <CAM_SetCustomSet>:
	USART_SendCmd(g_stCameraCmd.pCmd, g_stCameraCmd.CmdLen);
}

void CAM_SetCustomSet(void)
{
	g_stCameraCmd = AllCamCmd[CAM_Custom_Set];
     6f4:	8e e2       	ldi	r24, 0x2E	; 46
     6f6:	e5 e7       	ldi	r30, 0x75	; 117
     6f8:	f3 e0       	ldi	r31, 0x03	; 3
     6fa:	df 01       	movw	r26, r30
     6fc:	98 2f       	mov	r25, r24
     6fe:	1d 92       	st	X+, r1
     700:	9a 95       	dec	r25
     702:	e9 f7       	brne	.-6      	; 0x6fe <CAM_SetCustomSet+0xa>
     704:	df 01       	movw	r26, r30
     706:	1d 92       	st	X+, r1
     708:	8a 95       	dec	r24
     70a:	e9 f7       	brne	.-6      	; 0x706 <CAM_SetCustomSet+0x12>
     70c:	8e e9       	ldi	r24, 0x9E	; 158
     70e:	91 e0       	ldi	r25, 0x01	; 1
     710:	91 83       	std	Z+1, r25	; 0x01
     712:	80 83       	st	Z, r24
     714:	87 e0       	ldi	r24, 0x07	; 7
     716:	80 93 77 03 	sts	0x0377, r24
     71a:	81 e0       	ldi	r24, 0x01	; 1
     71c:	80 93 78 03 	sts	0x0378, r24
	USART_SendCmd(g_stCameraCmd.pCmd, g_stCameraCmd.CmdLen);
     720:	67 e0       	ldi	r22, 0x07	; 7
     722:	8e e9       	ldi	r24, 0x9E	; 158
     724:	91 e0       	ldi	r25, 0x01	; 1
     726:	0e 94 2a 18 	call	0x3054	; 0x3054 <USART_SendCmd>
     72a:	08 95       	ret

0000072c <CAM_SetTitleSet1>:
}



void CAM_SetTitleSet1(TITLE_DISPLAY titleDis)
{
     72c:	cf 93       	push	r28
     72e:	df 93       	push	r29
	if((g_stStatusCmd.uiModeID == _CAM_480)||(g_stStatusCmd.uiModeID == _CAM_1020))
     730:	20 91 a5 03 	lds	r18, 0x03A5
     734:	22 30       	cpi	r18, 0x02	; 2
     736:	c8 f4       	brcc	.+50     	; 0x76a <CAM_SetTitleSet1+0x3e>
	{
		g_stCameraCmd = AllCamCmd[CAM_Title_Set1_480];
     738:	2e e2       	ldi	r18, 0x2E	; 46
     73a:	e5 e7       	ldi	r30, 0x75	; 117
     73c:	f3 e0       	ldi	r31, 0x03	; 3
     73e:	df 01       	movw	r26, r30
     740:	c2 2f       	mov	r28, r18
     742:	1d 92       	st	X+, r1
     744:	ca 95       	dec	r28
     746:	e9 f7       	brne	.-6      	; 0x742 <CAM_SetTitleSet1+0x16>
     748:	ae e8       	ldi	r26, 0x8E	; 142
     74a:	b1 e0       	ldi	r27, 0x01	; 1
     74c:	ef 01       	movw	r28, r30
     74e:	19 92       	st	Y+, r1
     750:	2a 95       	dec	r18
     752:	e9 f7       	brne	.-6      	; 0x74e <CAM_SetTitleSet1+0x22>
     754:	b1 83       	std	Z+1, r27	; 0x01
     756:	a0 83       	st	Z, r26
     758:	20 e1       	ldi	r18, 0x10	; 16
     75a:	20 93 77 03 	sts	0x0377, r18
     75e:	21 e0       	ldi	r18, 0x01	; 1
     760:	20 93 78 03 	sts	0x0378, r18
		g_stCameraCmd.pCmd[5] = titleDis.uiTitleVPos;
     764:	15 96       	adiw	r26, 0x05	; 5
     766:	6c 93       	st	X, r22
     768:	19 c0       	rjmp	.+50     	; 0x79c <CAM_SetTitleSet1+0x70>
	}
	else
	{
		g_stCameraCmd = AllCamCmd[CAM_Title_Set1];
     76a:	2e e2       	ldi	r18, 0x2E	; 46
     76c:	e5 e7       	ldi	r30, 0x75	; 117
     76e:	f3 e0       	ldi	r31, 0x03	; 3
     770:	df 01       	movw	r26, r30
     772:	c2 2f       	mov	r28, r18
     774:	1d 92       	st	X+, r1
     776:	ca 95       	dec	r28
     778:	e9 f7       	brne	.-6      	; 0x774 <CAM_SetTitleSet1+0x48>
     77a:	a2 e5       	ldi	r26, 0x52	; 82
     77c:	b1 e0       	ldi	r27, 0x01	; 1
     77e:	ef 01       	movw	r28, r30
     780:	19 92       	st	Y+, r1
     782:	2a 95       	dec	r18
     784:	e9 f7       	brne	.-6      	; 0x780 <CAM_SetTitleSet1+0x54>
     786:	b1 83       	std	Z+1, r27	; 0x01
     788:	a0 83       	st	Z, r26
     78a:	20 e1       	ldi	r18, 0x10	; 16
     78c:	20 93 77 03 	sts	0x0377, r18
     790:	21 e0       	ldi	r18, 0x01	; 1
     792:	20 93 78 03 	sts	0x0378, r18
		g_stCameraCmd.pCmd[4] = 0x10;
		g_stCameraCmd.pCmd[4] |= titleDis.uiTitleVPos;
     796:	60 61       	ori	r22, 0x10	; 16
     798:	14 96       	adiw	r26, 0x04	; 4
     79a:	6c 93       	st	X, r22
	}
	g_stCameraCmd.pCmd[6] = titleDis.uiTitleHPos;
     79c:	e0 91 75 03 	lds	r30, 0x0375
     7a0:	f0 91 76 03 	lds	r31, 0x0376
     7a4:	76 83       	std	Z+6, r23	; 0x06
	g_stCameraCmd.pCmd[7] = titleDis.TitleColor;
     7a6:	87 83       	std	Z+7, r24	; 0x07
	g_stCameraCmd.pCmd[8] = titleDis.TitleBlink;
     7a8:	90 87       	std	Z+8, r25	; 0x08
	USART_SendCmd(g_stCameraCmd.pCmd, g_stCameraCmd.CmdLen);
     7aa:	60 91 77 03 	lds	r22, 0x0377
     7ae:	cf 01       	movw	r24, r30
     7b0:	0e 94 2a 18 	call	0x3054	; 0x3054 <USART_SendCmd>
}
     7b4:	df 91       	pop	r29
     7b6:	cf 91       	pop	r28
     7b8:	08 95       	ret

000007ba <CAM_SetTitleSet2>:

void CAM_SetTitleSet2(uint8_t LineNum, uint8_t* uiTitle)
{
     7ba:	cf 93       	push	r28
     7bc:	df 93       	push	r29
	uint8_t i = 0;
	
	if((g_stStatusCmd.uiModeID == _CAM_480)||(g_stStatusCmd.uiModeID == _CAM_1020))
     7be:	90 91 a5 03 	lds	r25, 0x03A5
     7c2:	92 30       	cpi	r25, 0x02	; 2
     7c4:	b8 f4       	brcc	.+46     	; 0x7f4 <CAM_SetTitleSet2+0x3a>
	{
		g_stCameraCmd = AllCamCmd[CAM_Title_Set2_480];
     7c6:	8e e2       	ldi	r24, 0x2E	; 46
     7c8:	e5 e7       	ldi	r30, 0x75	; 117
     7ca:	f3 e0       	ldi	r31, 0x03	; 3
     7cc:	df 01       	movw	r26, r30
     7ce:	c8 2f       	mov	r28, r24
     7d0:	1d 92       	st	X+, r1
     7d2:	ca 95       	dec	r28
     7d4:	e9 f7       	brne	.-6      	; 0x7d0 <CAM_SetTitleSet2+0x16>
     7d6:	df 01       	movw	r26, r30
     7d8:	1d 92       	st	X+, r1
     7da:	8a 95       	dec	r24
     7dc:	e9 f7       	brne	.-6      	; 0x7d8 <CAM_SetTitleSet2+0x1e>
     7de:	8e e7       	ldi	r24, 0x7E	; 126
     7e0:	91 e0       	ldi	r25, 0x01	; 1
     7e2:	91 83       	std	Z+1, r25	; 0x01
     7e4:	80 83       	st	Z, r24
     7e6:	80 e1       	ldi	r24, 0x10	; 16
     7e8:	80 93 77 03 	sts	0x0377, r24
     7ec:	81 e0       	ldi	r24, 0x01	; 1
     7ee:	80 93 78 03 	sts	0x0378, r24
     7f2:	2f c0       	rjmp	.+94     	; 0x852 <CAM_SetTitleSet2+0x98>
	}
	else
	{
		g_stCameraCmd = AllCamCmd[CAM_Title_Set2];
     7f4:	9e e2       	ldi	r25, 0x2E	; 46
     7f6:	e5 e7       	ldi	r30, 0x75	; 117
     7f8:	f3 e0       	ldi	r31, 0x03	; 3
     7fa:	ef 01       	movw	r28, r30
     7fc:	29 2f       	mov	r18, r25
     7fe:	19 92       	st	Y+, r1
     800:	2a 95       	dec	r18
     802:	e9 f7       	brne	.-6      	; 0x7fe <CAM_SetTitleSet2+0x44>
     804:	a2 e4       	ldi	r26, 0x42	; 66
     806:	b1 e0       	ldi	r27, 0x01	; 1
     808:	ef 01       	movw	r28, r30
     80a:	19 92       	st	Y+, r1
     80c:	9a 95       	dec	r25
     80e:	e9 f7       	brne	.-6      	; 0x80a <CAM_SetTitleSet2+0x50>
     810:	b1 83       	std	Z+1, r27	; 0x01
     812:	a0 83       	st	Z, r26
     814:	90 e1       	ldi	r25, 0x10	; 16
     816:	90 93 77 03 	sts	0x0377, r25
     81a:	91 e0       	ldi	r25, 0x01	; 1
     81c:	90 93 78 03 	sts	0x0378, r25
		g_stCameraCmd.pCmd[4] = 0x20;
		g_stCameraCmd.pCmd[4] |= LineNum;
     820:	80 62       	ori	r24, 0x20	; 32
     822:	14 96       	adiw	r26, 0x04	; 4
     824:	8c 93       	st	X, r24
     826:	15 c0       	rjmp	.+42     	; 0x852 <CAM_SetTitleSet2+0x98>
	}

	for (i = 0; i<10; i++)
	{
		g_stCameraCmd.pCmd[5+i]=uiTitle[i];
     828:	21 91       	ld	r18, Z+
     82a:	a0 91 75 03 	lds	r26, 0x0375
     82e:	b0 91 76 03 	lds	r27, 0x0376
     832:	a8 0f       	add	r26, r24
     834:	b9 1f       	adc	r27, r25
     836:	2c 93       	st	X, r18
     838:	01 96       	adiw	r24, 0x01	; 1
		g_stCameraCmd = AllCamCmd[CAM_Title_Set2];
		g_stCameraCmd.pCmd[4] = 0x20;
		g_stCameraCmd.pCmd[4] |= LineNum;
	}

	for (i = 0; i<10; i++)
     83a:	8f 30       	cpi	r24, 0x0F	; 15
     83c:	91 05       	cpc	r25, r1
     83e:	a1 f7       	brne	.-24     	; 0x828 <CAM_SetTitleSet2+0x6e>
	{
		g_stCameraCmd.pCmd[5+i]=uiTitle[i];
	}
	
	USART_SendCmd(g_stCameraCmd.pCmd, g_stCameraCmd.CmdLen);
     840:	60 91 77 03 	lds	r22, 0x0377
     844:	80 91 75 03 	lds	r24, 0x0375
     848:	90 91 76 03 	lds	r25, 0x0376
     84c:	0e 94 2a 18 	call	0x3054	; 0x3054 <USART_SendCmd>
     850:	05 c0       	rjmp	.+10     	; 0x85c <CAM_SetTitleSet2+0xa2>
     852:	e6 2f       	mov	r30, r22
     854:	f7 2f       	mov	r31, r23
	g_stCameraCmd.pCmd[8] = titleDis.TitleBlink;
	USART_SendCmd(g_stCameraCmd.pCmd, g_stCameraCmd.CmdLen);
}

void CAM_SetTitleSet2(uint8_t LineNum, uint8_t* uiTitle)
{
     856:	85 e0       	ldi	r24, 0x05	; 5
     858:	90 e0       	ldi	r25, 0x00	; 0
     85a:	e6 cf       	rjmp	.-52     	; 0x828 <CAM_SetTitleSet2+0x6e>
	{
		g_stCameraCmd.pCmd[5+i]=uiTitle[i];
	}
	
	USART_SendCmd(g_stCameraCmd.pCmd, g_stCameraCmd.CmdLen);
}
     85c:	df 91       	pop	r29
     85e:	cf 91       	pop	r28
     860:	08 95       	ret

00000862 <CAM_SetTitleSet3>:

void CAM_SetTitleSet3(uint8_t LineNum, uint8_t* uiTitle)
{
     862:	cf 93       	push	r28
     864:	df 93       	push	r29
	uint8_t i = 0;
	
	if((g_stStatusCmd.uiModeID == _CAM_480)||(g_stStatusCmd.uiModeID == _CAM_1020))
     866:	90 91 a5 03 	lds	r25, 0x03A5
     86a:	92 30       	cpi	r25, 0x02	; 2
     86c:	b8 f4       	brcc	.+46     	; 0x89c <CAM_SetTitleSet3+0x3a>
	{
		g_stCameraCmd = AllCamCmd[CAM_Title_Set3_480];
     86e:	8e e2       	ldi	r24, 0x2E	; 46
     870:	e5 e7       	ldi	r30, 0x75	; 117
     872:	f3 e0       	ldi	r31, 0x03	; 3
     874:	df 01       	movw	r26, r30
     876:	c8 2f       	mov	r28, r24
     878:	1d 92       	st	X+, r1
     87a:	ca 95       	dec	r28
     87c:	e9 f7       	brne	.-6      	; 0x878 <CAM_SetTitleSet3+0x16>
     87e:	df 01       	movw	r26, r30
     880:	1d 92       	st	X+, r1
     882:	8a 95       	dec	r24
     884:	e9 f7       	brne	.-6      	; 0x880 <CAM_SetTitleSet3+0x1e>
     886:	8e e6       	ldi	r24, 0x6E	; 110
     888:	91 e0       	ldi	r25, 0x01	; 1
     88a:	91 83       	std	Z+1, r25	; 0x01
     88c:	80 83       	st	Z, r24
     88e:	80 e1       	ldi	r24, 0x10	; 16
     890:	80 93 77 03 	sts	0x0377, r24
     894:	81 e0       	ldi	r24, 0x01	; 1
     896:	80 93 78 03 	sts	0x0378, r24
     89a:	2f c0       	rjmp	.+94     	; 0x8fa <CAM_SetTitleSet3+0x98>
	}
	else
	{
		g_stCameraCmd = AllCamCmd[CAM_Title_Set3];
     89c:	9e e2       	ldi	r25, 0x2E	; 46
     89e:	e5 e7       	ldi	r30, 0x75	; 117
     8a0:	f3 e0       	ldi	r31, 0x03	; 3
     8a2:	ef 01       	movw	r28, r30
     8a4:	29 2f       	mov	r18, r25
     8a6:	19 92       	st	Y+, r1
     8a8:	2a 95       	dec	r18
     8aa:	e9 f7       	brne	.-6      	; 0x8a6 <CAM_SetTitleSet3+0x44>
     8ac:	a2 e3       	ldi	r26, 0x32	; 50
     8ae:	b1 e0       	ldi	r27, 0x01	; 1
     8b0:	ef 01       	movw	r28, r30
     8b2:	19 92       	st	Y+, r1
     8b4:	9a 95       	dec	r25
     8b6:	e9 f7       	brne	.-6      	; 0x8b2 <CAM_SetTitleSet3+0x50>
     8b8:	b1 83       	std	Z+1, r27	; 0x01
     8ba:	a0 83       	st	Z, r26
     8bc:	90 e1       	ldi	r25, 0x10	; 16
     8be:	90 93 77 03 	sts	0x0377, r25
     8c2:	91 e0       	ldi	r25, 0x01	; 1
     8c4:	90 93 78 03 	sts	0x0378, r25
		g_stCameraCmd.pCmd[4] = 0x30;
		g_stCameraCmd.pCmd[4] |= LineNum;
     8c8:	80 63       	ori	r24, 0x30	; 48
     8ca:	14 96       	adiw	r26, 0x04	; 4
     8cc:	8c 93       	st	X, r24
     8ce:	15 c0       	rjmp	.+42     	; 0x8fa <CAM_SetTitleSet3+0x98>
	}

	for (i = 0; i<10; i++)
	{
		g_stCameraCmd.pCmd[5+i]=uiTitle[i];
     8d0:	21 91       	ld	r18, Z+
     8d2:	a0 91 75 03 	lds	r26, 0x0375
     8d6:	b0 91 76 03 	lds	r27, 0x0376
     8da:	a8 0f       	add	r26, r24
     8dc:	b9 1f       	adc	r27, r25
     8de:	2c 93       	st	X, r18
     8e0:	01 96       	adiw	r24, 0x01	; 1
		g_stCameraCmd = AllCamCmd[CAM_Title_Set3];
		g_stCameraCmd.pCmd[4] = 0x30;
		g_stCameraCmd.pCmd[4] |= LineNum;
	}

	for (i = 0; i<10; i++)
     8e2:	8f 30       	cpi	r24, 0x0F	; 15
     8e4:	91 05       	cpc	r25, r1
     8e6:	a1 f7       	brne	.-24     	; 0x8d0 <CAM_SetTitleSet3+0x6e>
	{
		g_stCameraCmd.pCmd[5+i]=uiTitle[i];
	}
	USART_SendCmd(g_stCameraCmd.pCmd, g_stCameraCmd.CmdLen);
     8e8:	60 91 77 03 	lds	r22, 0x0377
     8ec:	80 91 75 03 	lds	r24, 0x0375
     8f0:	90 91 76 03 	lds	r25, 0x0376
     8f4:	0e 94 2a 18 	call	0x3054	; 0x3054 <USART_SendCmd>
     8f8:	05 c0       	rjmp	.+10     	; 0x904 <CAM_SetTitleSet3+0xa2>
     8fa:	e6 2f       	mov	r30, r22
     8fc:	f7 2f       	mov	r31, r23
	
	USART_SendCmd(g_stCameraCmd.pCmd, g_stCameraCmd.CmdLen);
}

void CAM_SetTitleSet3(uint8_t LineNum, uint8_t* uiTitle)
{
     8fe:	85 e0       	ldi	r24, 0x05	; 5
     900:	90 e0       	ldi	r25, 0x00	; 0
     902:	e6 cf       	rjmp	.-52     	; 0x8d0 <CAM_SetTitleSet3+0x6e>
	for (i = 0; i<10; i++)
	{
		g_stCameraCmd.pCmd[5+i]=uiTitle[i];
	}
	USART_SendCmd(g_stCameraCmd.pCmd, g_stCameraCmd.CmdLen);
}
     904:	df 91       	pop	r29
     906:	cf 91       	pop	r28
     908:	08 95       	ret

0000090a <CAM_SetTitleClear>:

void CAM_SetTitleClear(void)
{
	if((g_stStatusCmd.uiModeID == _CAM_480)||(g_stStatusCmd.uiModeID == _CAM_1020))
     90a:	80 91 a5 03 	lds	r24, 0x03A5
     90e:	82 30       	cpi	r24, 0x02	; 2
     910:	b8 f4       	brcc	.+46     	; 0x940 <CAM_SetTitleClear+0x36>
	{
		g_stCameraCmd = AllCamCmd[CAM_Title_Clear_480];
     912:	8e e2       	ldi	r24, 0x2E	; 46
     914:	e5 e7       	ldi	r30, 0x75	; 117
     916:	f3 e0       	ldi	r31, 0x03	; 3
     918:	df 01       	movw	r26, r30
     91a:	98 2f       	mov	r25, r24
     91c:	1d 92       	st	X+, r1
     91e:	9a 95       	dec	r25
     920:	e9 f7       	brne	.-6      	; 0x91c <CAM_SetTitleClear+0x12>
     922:	df 01       	movw	r26, r30
     924:	1d 92       	st	X+, r1
     926:	8a 95       	dec	r24
     928:	e9 f7       	brne	.-6      	; 0x924 <CAM_SetTitleClear+0x1a>
     92a:	88 e6       	ldi	r24, 0x68	; 104
     92c:	91 e0       	ldi	r25, 0x01	; 1
     92e:	91 83       	std	Z+1, r25	; 0x01
     930:	80 83       	st	Z, r24
     932:	86 e0       	ldi	r24, 0x06	; 6
     934:	80 93 77 03 	sts	0x0377, r24
     938:	81 e0       	ldi	r24, 0x01	; 1
     93a:	80 93 78 03 	sts	0x0378, r24
     93e:	16 c0       	rjmp	.+44     	; 0x96c <CAM_SetTitleClear+0x62>
	}
	else
	{
		g_stCameraCmd = AllCamCmd[CAM_Title_Clear];
     940:	8e e2       	ldi	r24, 0x2E	; 46
     942:	e5 e7       	ldi	r30, 0x75	; 117
     944:	f3 e0       	ldi	r31, 0x03	; 3
     946:	df 01       	movw	r26, r30
     948:	98 2f       	mov	r25, r24
     94a:	1d 92       	st	X+, r1
     94c:	9a 95       	dec	r25
     94e:	e9 f7       	brne	.-6      	; 0x94a <CAM_SetTitleClear+0x40>
     950:	df 01       	movw	r26, r30
     952:	1d 92       	st	X+, r1
     954:	8a 95       	dec	r24
     956:	e9 f7       	brne	.-6      	; 0x952 <CAM_SetTitleClear+0x48>
     958:	8c e2       	ldi	r24, 0x2C	; 44
     95a:	91 e0       	ldi	r25, 0x01	; 1
     95c:	91 83       	std	Z+1, r25	; 0x01
     95e:	80 83       	st	Z, r24
     960:	86 e0       	ldi	r24, 0x06	; 6
     962:	80 93 77 03 	sts	0x0377, r24
     966:	81 e0       	ldi	r24, 0x01	; 1
     968:	80 93 78 03 	sts	0x0378, r24
	}
	
	USART_SendCmd(g_stCameraCmd.pCmd, g_stCameraCmd.CmdLen);
     96c:	60 91 77 03 	lds	r22, 0x0377
     970:	80 91 75 03 	lds	r24, 0x0375
     974:	90 91 76 03 	lds	r25, 0x0376
     978:	0e 94 2a 18 	call	0x3054	; 0x3054 <USART_SendCmd>
     97c:	08 95       	ret

0000097e <CAM_SetTitleOn>:
}

void CAM_SetTitleOn(void)
{
	if((g_stStatusCmd.uiModeID == _CAM_480)||(g_stStatusCmd.uiModeID == _CAM_1020))
     97e:	80 91 a5 03 	lds	r24, 0x03A5
     982:	82 30       	cpi	r24, 0x02	; 2
     984:	b8 f4       	brcc	.+46     	; 0x9b4 <CAM_SetTitleOn+0x36>
	{
		g_stCameraCmd = AllCamCmd[CAM_Title_On_480];
     986:	8e e2       	ldi	r24, 0x2E	; 46
     988:	e5 e7       	ldi	r30, 0x75	; 117
     98a:	f3 e0       	ldi	r31, 0x03	; 3
     98c:	df 01       	movw	r26, r30
     98e:	98 2f       	mov	r25, r24
     990:	1d 92       	st	X+, r1
     992:	9a 95       	dec	r25
     994:	e9 f7       	brne	.-6      	; 0x990 <CAM_SetTitleOn+0x12>
     996:	df 01       	movw	r26, r30
     998:	1d 92       	st	X+, r1
     99a:	8a 95       	dec	r24
     99c:	e9 f7       	brne	.-6      	; 0x998 <CAM_SetTitleOn+0x1a>
     99e:	82 e6       	ldi	r24, 0x62	; 98
     9a0:	91 e0       	ldi	r25, 0x01	; 1
     9a2:	91 83       	std	Z+1, r25	; 0x01
     9a4:	80 83       	st	Z, r24
     9a6:	86 e0       	ldi	r24, 0x06	; 6
     9a8:	80 93 77 03 	sts	0x0377, r24
     9ac:	81 e0       	ldi	r24, 0x01	; 1
     9ae:	80 93 78 03 	sts	0x0378, r24
     9b2:	16 c0       	rjmp	.+44     	; 0x9e0 <CAM_SetTitleOn+0x62>
	}
	else
	{
		g_stCameraCmd = AllCamCmd[CAM_Title_On];
     9b4:	8e e2       	ldi	r24, 0x2E	; 46
     9b6:	e5 e7       	ldi	r30, 0x75	; 117
     9b8:	f3 e0       	ldi	r31, 0x03	; 3
     9ba:	df 01       	movw	r26, r30
     9bc:	98 2f       	mov	r25, r24
     9be:	1d 92       	st	X+, r1
     9c0:	9a 95       	dec	r25
     9c2:	e9 f7       	brne	.-6      	; 0x9be <CAM_SetTitleOn+0x40>
     9c4:	df 01       	movw	r26, r30
     9c6:	1d 92       	st	X+, r1
     9c8:	8a 95       	dec	r24
     9ca:	e9 f7       	brne	.-6      	; 0x9c6 <CAM_SetTitleOn+0x48>
     9cc:	86 e2       	ldi	r24, 0x26	; 38
     9ce:	91 e0       	ldi	r25, 0x01	; 1
     9d0:	91 83       	std	Z+1, r25	; 0x01
     9d2:	80 83       	st	Z, r24
     9d4:	86 e0       	ldi	r24, 0x06	; 6
     9d6:	80 93 77 03 	sts	0x0377, r24
     9da:	81 e0       	ldi	r24, 0x01	; 1
     9dc:	80 93 78 03 	sts	0x0378, r24
	}
	
	USART_SendCmd(g_stCameraCmd.pCmd, g_stCameraCmd.CmdLen);
     9e0:	60 91 77 03 	lds	r22, 0x0377
     9e4:	80 91 75 03 	lds	r24, 0x0375
     9e8:	90 91 76 03 	lds	r25, 0x0376
     9ec:	0e 94 2a 18 	call	0x3054	; 0x3054 <USART_SendCmd>
     9f0:	08 95       	ret

000009f2 <CAM_SetSAVEAVOn>:
}
#endif

void CAM_SetSAVEAVOn(void)
{
	g_stCameraCmd = AllCamCmd[CAM_SAVEAV_on];
     9f2:	8e e2       	ldi	r24, 0x2E	; 46
     9f4:	e5 e7       	ldi	r30, 0x75	; 117
     9f6:	f3 e0       	ldi	r31, 0x03	; 3
     9f8:	df 01       	movw	r26, r30
     9fa:	98 2f       	mov	r25, r24
     9fc:	1d 92       	st	X+, r1
     9fe:	9a 95       	dec	r25
     a00:	e9 f7       	brne	.-6      	; 0x9fc <CAM_SetSAVEAVOn+0xa>
     a02:	df 01       	movw	r26, r30
     a04:	1d 92       	st	X+, r1
     a06:	8a 95       	dec	r24
     a08:	e9 f7       	brne	.-6      	; 0xa04 <CAM_SetSAVEAVOn+0x12>
     a0a:	8e e1       	ldi	r24, 0x1E	; 30
     a0c:	91 e0       	ldi	r25, 0x01	; 1
     a0e:	91 83       	std	Z+1, r25	; 0x01
     a10:	80 83       	st	Z, r24
     a12:	88 e0       	ldi	r24, 0x08	; 8
     a14:	80 93 77 03 	sts	0x0377, r24
     a18:	81 e0       	ldi	r24, 0x01	; 1
     a1a:	80 93 78 03 	sts	0x0378, r24
	USART_SendCmd(g_stCameraCmd.pCmd, g_stCameraCmd.CmdLen);
     a1e:	68 e0       	ldi	r22, 0x08	; 8
     a20:	8e e1       	ldi	r24, 0x1E	; 30
     a22:	91 e0       	ldi	r25, 0x01	; 1
     a24:	0e 94 2a 18 	call	0x3054	; 0x3054 <USART_SendCmd>
     a28:	08 95       	ret

00000a2a <CAM_InqZoomPos>:
	USART_SendCmd(g_stCameraCmd.pCmd, g_stCameraCmd.CmdLen);
}

void CAM_InqZoomPos(void)
{
	g_stCameraCmd = AllCamCmd[CAM_ZoomPos_Inq];
     a2a:	8e e2       	ldi	r24, 0x2E	; 46
     a2c:	e5 e7       	ldi	r30, 0x75	; 117
     a2e:	f3 e0       	ldi	r31, 0x03	; 3
     a30:	df 01       	movw	r26, r30
     a32:	98 2f       	mov	r25, r24
     a34:	1d 92       	st	X+, r1
     a36:	9a 95       	dec	r25
     a38:	e9 f7       	brne	.-6      	; 0xa34 <CAM_InqZoomPos+0xa>
     a3a:	df 01       	movw	r26, r30
     a3c:	1d 92       	st	X+, r1
     a3e:	8a 95       	dec	r24
     a40:	e9 f7       	brne	.-6      	; 0xa3c <CAM_InqZoomPos+0x12>
     a42:	89 e1       	ldi	r24, 0x19	; 25
     a44:	91 e0       	ldi	r25, 0x01	; 1
     a46:	91 83       	std	Z+1, r25	; 0x01
     a48:	80 83       	st	Z, r24
     a4a:	85 e0       	ldi	r24, 0x05	; 5
     a4c:	80 93 77 03 	sts	0x0377, r24
     a50:	89 e0       	ldi	r24, 0x09	; 9
     a52:	80 93 78 03 	sts	0x0378, r24
	USART_SendCmd(g_stCameraCmd.pCmd, g_stCameraCmd.CmdLen);
     a56:	65 e0       	ldi	r22, 0x05	; 5
     a58:	89 e1       	ldi	r24, 0x19	; 25
     a5a:	91 e0       	ldi	r25, 0x01	; 1
     a5c:	0e 94 2a 18 	call	0x3054	; 0x3054 <USART_SendCmd>
     a60:	08 95       	ret

00000a62 <CAM_InqFocusPos>:
}

void CAM_InqFocusPos(void)
{
	g_stCameraCmd = AllCamCmd[CAM_FocusPos_Inq];
     a62:	8e e2       	ldi	r24, 0x2E	; 46
     a64:	e5 e7       	ldi	r30, 0x75	; 117
     a66:	f3 e0       	ldi	r31, 0x03	; 3
     a68:	df 01       	movw	r26, r30
     a6a:	98 2f       	mov	r25, r24
     a6c:	1d 92       	st	X+, r1
     a6e:	9a 95       	dec	r25
     a70:	e9 f7       	brne	.-6      	; 0xa6c <CAM_InqFocusPos+0xa>
     a72:	df 01       	movw	r26, r30
     a74:	1d 92       	st	X+, r1
     a76:	8a 95       	dec	r24
     a78:	e9 f7       	brne	.-6      	; 0xa74 <CAM_InqFocusPos+0x12>
     a7a:	84 e1       	ldi	r24, 0x14	; 20
     a7c:	91 e0       	ldi	r25, 0x01	; 1
     a7e:	91 83       	std	Z+1, r25	; 0x01
     a80:	80 83       	st	Z, r24
     a82:	85 e0       	ldi	r24, 0x05	; 5
     a84:	80 93 77 03 	sts	0x0377, r24
     a88:	89 e0       	ldi	r24, 0x09	; 9
     a8a:	80 93 78 03 	sts	0x0378, r24
	USART_SendCmd(g_stCameraCmd.pCmd, g_stCameraCmd.CmdLen);
     a8e:	65 e0       	ldi	r22, 0x05	; 5
     a90:	84 e1       	ldi	r24, 0x14	; 20
     a92:	91 e0       	ldi	r25, 0x01	; 1
     a94:	0e 94 2a 18 	call	0x3054	; 0x3054 <USART_SendCmd>
     a98:	08 95       	ret

00000a9a <CAM_InqRGain>:
	USART_SendCmd(g_stCameraCmd.pCmd, g_stCameraCmd.CmdLen);
}

void CAM_InqRGain(void)
{
	g_stCameraCmd = AllCamCmd[CAM_RGain_Inq];
     a9a:	8e e2       	ldi	r24, 0x2E	; 46
     a9c:	e5 e7       	ldi	r30, 0x75	; 117
     a9e:	f3 e0       	ldi	r31, 0x03	; 3
     aa0:	df 01       	movw	r26, r30
     aa2:	98 2f       	mov	r25, r24
     aa4:	1d 92       	st	X+, r1
     aa6:	9a 95       	dec	r25
     aa8:	e9 f7       	brne	.-6      	; 0xaa4 <CAM_InqRGain+0xa>
     aaa:	df 01       	movw	r26, r30
     aac:	1d 92       	st	X+, r1
     aae:	8a 95       	dec	r24
     ab0:	e9 f7       	brne	.-6      	; 0xaac <CAM_InqRGain+0x12>
     ab2:	8f e0       	ldi	r24, 0x0F	; 15
     ab4:	91 e0       	ldi	r25, 0x01	; 1
     ab6:	91 83       	std	Z+1, r25	; 0x01
     ab8:	80 83       	st	Z, r24
     aba:	85 e0       	ldi	r24, 0x05	; 5
     abc:	80 93 77 03 	sts	0x0377, r24
     ac0:	89 e0       	ldi	r24, 0x09	; 9
     ac2:	80 93 78 03 	sts	0x0378, r24
	USART_SendCmd(g_stCameraCmd.pCmd, g_stCameraCmd.CmdLen);
     ac6:	65 e0       	ldi	r22, 0x05	; 5
     ac8:	8f e0       	ldi	r24, 0x0F	; 15
     aca:	91 e0       	ldi	r25, 0x01	; 1
     acc:	0e 94 2a 18 	call	0x3054	; 0x3054 <USART_SendCmd>
     ad0:	08 95       	ret

00000ad2 <CAM_InqBGain>:
}

void CAM_InqBGain(void)
{
	g_stCameraCmd = AllCamCmd[CAM_BGain_Inq];
     ad2:	8e e2       	ldi	r24, 0x2E	; 46
     ad4:	e5 e7       	ldi	r30, 0x75	; 117
     ad6:	f3 e0       	ldi	r31, 0x03	; 3
     ad8:	df 01       	movw	r26, r30
     ada:	98 2f       	mov	r25, r24
     adc:	1d 92       	st	X+, r1
     ade:	9a 95       	dec	r25
     ae0:	e9 f7       	brne	.-6      	; 0xadc <CAM_InqBGain+0xa>
     ae2:	df 01       	movw	r26, r30
     ae4:	1d 92       	st	X+, r1
     ae6:	8a 95       	dec	r24
     ae8:	e9 f7       	brne	.-6      	; 0xae4 <CAM_InqBGain+0x12>
     aea:	8a e0       	ldi	r24, 0x0A	; 10
     aec:	91 e0       	ldi	r25, 0x01	; 1
     aee:	91 83       	std	Z+1, r25	; 0x01
     af0:	80 83       	st	Z, r24
     af2:	85 e0       	ldi	r24, 0x05	; 5
     af4:	80 93 77 03 	sts	0x0377, r24
     af8:	89 e0       	ldi	r24, 0x09	; 9
     afa:	80 93 78 03 	sts	0x0378, r24
	USART_SendCmd(g_stCameraCmd.pCmd, g_stCameraCmd.CmdLen);
     afe:	65 e0       	ldi	r22, 0x05	; 5
     b00:	8a e0       	ldi	r24, 0x0A	; 10
     b02:	91 e0       	ldi	r25, 0x01	; 1
     b04:	0e 94 2a 18 	call	0x3054	; 0x3054 <USART_SendCmd>
     b08:	08 95       	ret

00000b0a <CAM_InqID>:
}

void CAM_InqID(void)
{
	g_stCameraCmd = AllCamCmd[CAM_ID_Inq];
     b0a:	8e e2       	ldi	r24, 0x2E	; 46
     b0c:	e5 e7       	ldi	r30, 0x75	; 117
     b0e:	f3 e0       	ldi	r31, 0x03	; 3
     b10:	df 01       	movw	r26, r30
     b12:	98 2f       	mov	r25, r24
     b14:	1d 92       	st	X+, r1
     b16:	9a 95       	dec	r25
     b18:	e9 f7       	brne	.-6      	; 0xb14 <CAM_InqID+0xa>
     b1a:	df 01       	movw	r26, r30
     b1c:	1d 92       	st	X+, r1
     b1e:	8a 95       	dec	r24
     b20:	e9 f7       	brne	.-6      	; 0xb1c <CAM_InqID+0x12>
     b22:	85 e0       	ldi	r24, 0x05	; 5
     b24:	91 e0       	ldi	r25, 0x01	; 1
     b26:	91 83       	std	Z+1, r25	; 0x01
     b28:	80 83       	st	Z, r24
     b2a:	85 e0       	ldi	r24, 0x05	; 5
     b2c:	80 93 77 03 	sts	0x0377, r24
     b30:	89 e0       	ldi	r24, 0x09	; 9
     b32:	80 93 78 03 	sts	0x0378, r24
	USART_SendCmd(g_stCameraCmd.pCmd, g_stCameraCmd.CmdLen);
     b36:	65 e0       	ldi	r22, 0x05	; 5
     b38:	85 e0       	ldi	r24, 0x05	; 5
     b3a:	91 e0       	ldi	r25, 0x01	; 1
     b3c:	0e 94 2a 18 	call	0x3054	; 0x3054 <USART_SendCmd>
     b40:	08 95       	ret

00000b42 <CAM_InqVersion>:
}

void CAM_InqVersion(void)
{
	g_stCameraCmd = AllCamCmd[CAM_Version_Inq];
     b42:	8e e2       	ldi	r24, 0x2E	; 46
     b44:	e5 e7       	ldi	r30, 0x75	; 117
     b46:	f3 e0       	ldi	r31, 0x03	; 3
     b48:	df 01       	movw	r26, r30
     b4a:	98 2f       	mov	r25, r24
     b4c:	1d 92       	st	X+, r1
     b4e:	9a 95       	dec	r25
     b50:	e9 f7       	brne	.-6      	; 0xb4c <CAM_InqVersion+0xa>
     b52:	df 01       	movw	r26, r30
     b54:	1d 92       	st	X+, r1
     b56:	8a 95       	dec	r24
     b58:	e9 f7       	brne	.-6      	; 0xb54 <CAM_InqVersion+0x12>
     b5a:	80 e0       	ldi	r24, 0x00	; 0
     b5c:	91 e0       	ldi	r25, 0x01	; 1
     b5e:	91 83       	std	Z+1, r25	; 0x01
     b60:	80 83       	st	Z, r24
     b62:	85 e0       	ldi	r24, 0x05	; 5
     b64:	80 93 77 03 	sts	0x0377, r24
     b68:	89 e0       	ldi	r24, 0x09	; 9
     b6a:	80 93 78 03 	sts	0x0378, r24
	USART_SendCmd(g_stCameraCmd.pCmd, g_stCameraCmd.CmdLen);
     b6e:	65 e0       	ldi	r22, 0x05	; 5
     b70:	80 e0       	ldi	r24, 0x00	; 0
     b72:	91 e0       	ldi	r25, 0x01	; 1
     b74:	0e 94 2a 18 	call	0x3054	; 0x3054 <USART_SendCmd>
     b78:	08 95       	ret

00000b7a <GetCameraId>:
}

uint16_t GetCameraId(void)
{
	uint16_t uiID = 0;
	if (4==g_stCameraCmd.InquiryResultLength)
     b7a:	80 91 a2 03 	lds	r24, 0x03A2
     b7e:	84 30       	cpi	r24, 0x04	; 4
     b80:	f1 f4       	brne	.+60     	; 0xbbe <GetCameraId+0x44>
	{
		uiID = (g_stCameraCmd.InquiryResult[0]&0x0F)*0x1000;
     b82:	20 91 92 03 	lds	r18, 0x0392
     b86:	2f 70       	andi	r18, 0x0F	; 15
     b88:	30 e0       	ldi	r19, 0x00	; 0
     b8a:	32 2f       	mov	r19, r18
     b8c:	22 27       	eor	r18, r18
     b8e:	32 95       	swap	r19
     b90:	30 7f       	andi	r19, 0xF0	; 240
		uiID += (g_stCameraCmd.InquiryResult[1]&0x0F)*0x100;
     b92:	80 91 93 03 	lds	r24, 0x0393
     b96:	8f 70       	andi	r24, 0x0F	; 15
     b98:	90 e0       	ldi	r25, 0x00	; 0
     b9a:	98 2f       	mov	r25, r24
     b9c:	88 27       	eor	r24, r24
     b9e:	82 0f       	add	r24, r18
     ba0:	93 1f       	adc	r25, r19
		uiID += (g_stCameraCmd.InquiryResult[2]&0x0F)*0x10;
		uiID += (g_stCameraCmd.InquiryResult[3]&0x0F)*0x1;
     ba2:	20 91 95 03 	lds	r18, 0x0395
     ba6:	2f 70       	andi	r18, 0x0F	; 15
	uint16_t uiID = 0;
	if (4==g_stCameraCmd.InquiryResultLength)
	{
		uiID = (g_stCameraCmd.InquiryResult[0]&0x0F)*0x1000;
		uiID += (g_stCameraCmd.InquiryResult[1]&0x0F)*0x100;
		uiID += (g_stCameraCmd.InquiryResult[2]&0x0F)*0x10;
     ba8:	82 0f       	add	r24, r18
     baa:	91 1d       	adc	r25, r1
     bac:	20 91 94 03 	lds	r18, 0x0394
     bb0:	2f 70       	andi	r18, 0x0F	; 15
		uiID += (g_stCameraCmd.InquiryResult[3]&0x0F)*0x1;
     bb2:	30 e1       	ldi	r19, 0x10	; 16
     bb4:	23 9f       	mul	r18, r19
     bb6:	80 0d       	add	r24, r0
     bb8:	91 1d       	adc	r25, r1
     bba:	11 24       	eor	r1, r1
     bbc:	02 c0       	rjmp	.+4      	; 0xbc2 <GetCameraId+0x48>
	return (lenRight&&codeRight);
}

uint16_t GetCameraId(void)
{
	uint16_t uiID = 0;
     bbe:	80 e0       	ldi	r24, 0x00	; 0
     bc0:	90 e0       	ldi	r25, 0x00	; 0
		uiID = (g_stCameraCmd.InquiryResult[0]&0x0F)*0x1000;
		uiID += (g_stCameraCmd.InquiryResult[1]&0x0F)*0x100;
		uiID += (g_stCameraCmd.InquiryResult[2]&0x0F)*0x10;
		uiID += (g_stCameraCmd.InquiryResult[3]&0x0F)*0x1;
	}
	g_stStatusCmd.uiCamID = uiID;
     bc2:	90 93 a4 03 	sts	0x03A4, r25
     bc6:	80 93 a3 03 	sts	0x03A3, r24
	return uiID;
}
     bca:	08 95       	ret

00000bcc <GetZoomPos>:

uint16_t GetZoomPos(void)
{
	uint16_t uiPos = 0;
	if (4==g_stCameraCmd.InquiryResultLength)
     bcc:	80 91 a2 03 	lds	r24, 0x03A2
     bd0:	84 30       	cpi	r24, 0x04	; 4
     bd2:	f1 f4       	brne	.+60     	; 0xc10 <GetZoomPos+0x44>
	{
		uiPos = (g_stCameraCmd.InquiryResult[0]&0x0F)*0x1000;
     bd4:	20 91 92 03 	lds	r18, 0x0392
     bd8:	2f 70       	andi	r18, 0x0F	; 15
     bda:	30 e0       	ldi	r19, 0x00	; 0
     bdc:	32 2f       	mov	r19, r18
     bde:	22 27       	eor	r18, r18
     be0:	32 95       	swap	r19
     be2:	30 7f       	andi	r19, 0xF0	; 240
		uiPos += (g_stCameraCmd.InquiryResult[1]&0x0F)*0x100;
     be4:	80 91 93 03 	lds	r24, 0x0393
     be8:	8f 70       	andi	r24, 0x0F	; 15
     bea:	90 e0       	ldi	r25, 0x00	; 0
     bec:	98 2f       	mov	r25, r24
     bee:	88 27       	eor	r24, r24
     bf0:	82 0f       	add	r24, r18
     bf2:	93 1f       	adc	r25, r19
		uiPos += (g_stCameraCmd.InquiryResult[2]&0x0F)*0x10;
		uiPos += (g_stCameraCmd.InquiryResult[3]&0x0F)*0x1;
     bf4:	20 91 95 03 	lds	r18, 0x0395
     bf8:	2f 70       	andi	r18, 0x0F	; 15
	uint16_t uiPos = 0;
	if (4==g_stCameraCmd.InquiryResultLength)
	{
		uiPos = (g_stCameraCmd.InquiryResult[0]&0x0F)*0x1000;
		uiPos += (g_stCameraCmd.InquiryResult[1]&0x0F)*0x100;
		uiPos += (g_stCameraCmd.InquiryResult[2]&0x0F)*0x10;
     bfa:	82 0f       	add	r24, r18
     bfc:	91 1d       	adc	r25, r1
     bfe:	20 91 94 03 	lds	r18, 0x0394
     c02:	2f 70       	andi	r18, 0x0F	; 15
		uiPos += (g_stCameraCmd.InquiryResult[3]&0x0F)*0x1;
     c04:	30 e1       	ldi	r19, 0x10	; 16
     c06:	23 9f       	mul	r18, r19
     c08:	80 0d       	add	r24, r0
     c0a:	91 1d       	adc	r25, r1
     c0c:	11 24       	eor	r1, r1
     c0e:	08 95       	ret
	return uiID;
}

uint16_t GetZoomPos(void)
{
	uint16_t uiPos = 0;
     c10:	80 e0       	ldi	r24, 0x00	; 0
     c12:	90 e0       	ldi	r25, 0x00	; 0
		uiPos += (g_stCameraCmd.InquiryResult[2]&0x0F)*0x10;
		uiPos += (g_stCameraCmd.InquiryResult[3]&0x0F)*0x1;
	}
	
	return uiPos;
}
     c14:	08 95       	ret

00000c16 <GetFocusPos>:

uint16_t GetFocusPos(void)
{
	uint16_t uiPos = 0;
	if (4==g_stCameraCmd.InquiryResultLength)
     c16:	80 91 a2 03 	lds	r24, 0x03A2
     c1a:	84 30       	cpi	r24, 0x04	; 4
     c1c:	f1 f4       	brne	.+60     	; 0xc5a <GetFocusPos+0x44>
	{
		uiPos = (g_stCameraCmd.InquiryResult[0]&0x0F)*0x1000;
     c1e:	20 91 92 03 	lds	r18, 0x0392
     c22:	2f 70       	andi	r18, 0x0F	; 15
     c24:	30 e0       	ldi	r19, 0x00	; 0
     c26:	32 2f       	mov	r19, r18
     c28:	22 27       	eor	r18, r18
     c2a:	32 95       	swap	r19
     c2c:	30 7f       	andi	r19, 0xF0	; 240
		uiPos += (g_stCameraCmd.InquiryResult[1]&0x0F)*0x100;
     c2e:	80 91 93 03 	lds	r24, 0x0393
     c32:	8f 70       	andi	r24, 0x0F	; 15
     c34:	90 e0       	ldi	r25, 0x00	; 0
     c36:	98 2f       	mov	r25, r24
     c38:	88 27       	eor	r24, r24
     c3a:	82 0f       	add	r24, r18
     c3c:	93 1f       	adc	r25, r19
		uiPos += (g_stCameraCmd.InquiryResult[2]&0x0F)*0x10;
		uiPos += (g_stCameraCmd.InquiryResult[3]&0x0F)*0x1;
     c3e:	20 91 95 03 	lds	r18, 0x0395
     c42:	2f 70       	andi	r18, 0x0F	; 15
	uint16_t uiPos = 0;
	if (4==g_stCameraCmd.InquiryResultLength)
	{
		uiPos = (g_stCameraCmd.InquiryResult[0]&0x0F)*0x1000;
		uiPos += (g_stCameraCmd.InquiryResult[1]&0x0F)*0x100;
		uiPos += (g_stCameraCmd.InquiryResult[2]&0x0F)*0x10;
     c44:	82 0f       	add	r24, r18
     c46:	91 1d       	adc	r25, r1
     c48:	20 91 94 03 	lds	r18, 0x0394
     c4c:	2f 70       	andi	r18, 0x0F	; 15
		uiPos += (g_stCameraCmd.InquiryResult[3]&0x0F)*0x1;
     c4e:	30 e1       	ldi	r19, 0x10	; 16
     c50:	23 9f       	mul	r18, r19
     c52:	80 0d       	add	r24, r0
     c54:	91 1d       	adc	r25, r1
     c56:	11 24       	eor	r1, r1
     c58:	08 95       	ret
	return uiPos;
}

uint16_t GetFocusPos(void)
{
	uint16_t uiPos = 0;
     c5a:	80 e0       	ldi	r24, 0x00	; 0
     c5c:	90 e0       	ldi	r25, 0x00	; 0
		uiPos += (g_stCameraCmd.InquiryResult[2]&0x0F)*0x10;
		uiPos += (g_stCameraCmd.InquiryResult[3]&0x0F)*0x1;
	}
	
	return uiPos;
}
     c5e:	08 95       	ret

00000c60 <GetCameraVersion>:

uint16_t GetCameraVersion(void)
{
	uint16_t uiModelCode=0;

	uiModelCode = g_stCameraCmd.InquiryResult[2]*0x100;
     c60:	80 91 94 03 	lds	r24, 0x0394
     c64:	90 e0       	ldi	r25, 0x00	; 0
     c66:	98 2f       	mov	r25, r24
     c68:	88 27       	eor	r24, r24
	uiModelCode += g_stCameraCmd.InquiryResult[3];
     c6a:	20 91 95 03 	lds	r18, 0x0395

	return uiModelCode;
}
     c6e:	82 0f       	add	r24, r18
     c70:	91 1d       	adc	r25, r1
     c72:	08 95       	ret

00000c74 <GetRGain>:
}

uint8_t GetRGain(void)
{
	uint8_t uiGain = 0;
	if (4==g_stCameraCmd.InquiryResultLength)
     c74:	80 91 a2 03 	lds	r24, 0x03A2
     c78:	84 30       	cpi	r24, 0x04	; 4
     c7a:	51 f4       	brne	.+20     	; 0xc90 <GetRGain+0x1c>
	{
		uiGain = (g_stCameraCmd.InquiryResult[2]&0x0F)*0x10; 
     c7c:	90 91 94 03 	lds	r25, 0x0394
		uiGain += (g_stCameraCmd.InquiryResult[3]&0x0F)*0x1;
     c80:	80 91 95 03 	lds	r24, 0x0395
     c84:	8f 70       	andi	r24, 0x0F	; 15
     c86:	20 e1       	ldi	r18, 0x10	; 16
     c88:	92 9f       	mul	r25, r18
     c8a:	80 0d       	add	r24, r0
     c8c:	11 24       	eor	r1, r1
     c8e:	08 95       	ret
	return WBmode;
}

uint8_t GetRGain(void)
{
	uint8_t uiGain = 0;
     c90:	80 e0       	ldi	r24, 0x00	; 0
	
	#ifdef _DEBUG_PRINTF
	//MyPrintf("GetRGain:g_stCameraCmd.InquiryResultLength is: %d",g_stCameraCmd.InquiryResultLength );
	#endif
	return uiGain;
}
     c92:	08 95       	ret

00000c94 <GetBGain>:

uint8_t GetBGain(void)
{
	uint8_t uiGain = 0;
	if (4==g_stCameraCmd.InquiryResultLength)
     c94:	80 91 a2 03 	lds	r24, 0x03A2
     c98:	84 30       	cpi	r24, 0x04	; 4
     c9a:	51 f4       	brne	.+20     	; 0xcb0 <GetBGain+0x1c>
	{
		uiGain = (g_stCameraCmd.InquiryResult[2]&0x0F)*0x10;
     c9c:	90 91 94 03 	lds	r25, 0x0394
		uiGain += (g_stCameraCmd.InquiryResult[3]&0x0F)*0x1;
     ca0:	80 91 95 03 	lds	r24, 0x0395
     ca4:	8f 70       	andi	r24, 0x0F	; 15
     ca6:	20 e1       	ldi	r18, 0x10	; 16
     ca8:	92 9f       	mul	r25, r18
     caa:	80 0d       	add	r24, r0
     cac:	11 24       	eor	r1, r1
     cae:	08 95       	ret
	return uiGain;
}

uint8_t GetBGain(void)
{
	uint8_t uiGain = 0;
     cb0:	80 e0       	ldi	r24, 0x00	; 0
	#ifdef _DEBUG_PRINTF
	//MyPrintf("GetBGain:g_stCameraCmd.InquiryResultLength is: %d",g_stCameraCmd.InquiryResultLength );
	#endif
	
	return uiGain;
}
     cb2:	08 95       	ret

00000cb4 <CommandInit>:

void CommandInit(CAM_CMD* Cmd)
{
     cb4:	dc 01       	movw	r26, r24
	uint8_t i = 0;
	Cmd->pCmd = NULL;
     cb6:	11 96       	adiw	r26, 0x01	; 1
     cb8:	1c 92       	st	X, r1
     cba:	1e 92       	st	-X, r1
	Cmd->CmdLen = 0;
     cbc:	12 96       	adiw	r26, 0x02	; 2
     cbe:	1c 92       	st	X, r1
     cc0:	12 97       	sbiw	r26, 0x02	; 2
	Cmd->CmdType = _CMD_TYPE_TOTAL;
     cc2:	8f ef       	ldi	r24, 0xFF	; 255
     cc4:	13 96       	adiw	r26, 0x03	; 3
     cc6:	8c 93       	st	X, r24
     cc8:	13 97       	sbiw	r26, 0x03	; 3
	Cmd->CmdStatus = _CMD_STATUS_TOTAL;
     cca:	92 e0       	ldi	r25, 0x02	; 2
     ccc:	14 96       	adiw	r26, 0x04	; 4
     cce:	9c 93       	st	X, r25
     cd0:	14 97       	sbiw	r26, 0x04	; 4
	Cmd->CmdReply = _CMD_REPLY_TOTAL;
     cd2:	15 96       	adiw	r26, 0x05	; 5
     cd4:	8c 93       	st	X, r24
     cd6:	15 97       	sbiw	r26, 0x05	; 5
	for (i = 0; i < REPLY_ACK_BUF_LENGTH; i++)
	{
		Cmd->RecBufAck[i] = 0;
     cd8:	16 96       	adiw	r26, 0x06	; 6
     cda:	1c 92       	st	X, r1
     cdc:	16 97       	sbiw	r26, 0x06	; 6
     cde:	17 96       	adiw	r26, 0x07	; 7
     ce0:	1c 92       	st	X, r1
     ce2:	17 97       	sbiw	r26, 0x07	; 7
     ce4:	18 96       	adiw	r26, 0x08	; 8
     ce6:	1c 92       	st	X, r1
     ce8:	18 97       	sbiw	r26, 0x08	; 8
     cea:	fd 01       	movw	r30, r26
     cec:	39 96       	adiw	r30, 0x09	; 9
     cee:	80 e1       	ldi	r24, 0x10	; 16
	}
	
	for (i = 0; i < REPLY_COMPLETION_BUF_LENGTH; i++)
	{
		Cmd->RecBufCompletion[i] = 0;
     cf0:	11 92       	st	Z+, r1
     cf2:	81 50       	subi	r24, 0x01	; 1
	for (i = 0; i < REPLY_ACK_BUF_LENGTH; i++)
	{
		Cmd->RecBufAck[i] = 0;
	}
	
	for (i = 0; i < REPLY_COMPLETION_BUF_LENGTH; i++)
     cf4:	e9 f7       	brne	.-6      	; 0xcf0 <CommandInit+0x3c>
		Cmd->RecBufCompletion[i] = 0;
	}
	
	for (i = 0; i < REPLY_ERROR_BUF_LENGTH; i++)
	{
		Cmd->RecBufError[i] = 0;
     cf6:	59 96       	adiw	r26, 0x19	; 25
     cf8:	1c 92       	st	X, r1
     cfa:	59 97       	sbiw	r26, 0x19	; 25
     cfc:	5a 96       	adiw	r26, 0x1a	; 26
     cfe:	1c 92       	st	X, r1
     d00:	5a 97       	sbiw	r26, 0x1a	; 26
     d02:	5b 96       	adiw	r26, 0x1b	; 27
     d04:	1c 92       	st	X, r1
     d06:	5b 97       	sbiw	r26, 0x1b	; 27
     d08:	5c 96       	adiw	r26, 0x1c	; 28
     d0a:	1c 92       	st	X, r1
     d0c:	5c 97       	sbiw	r26, 0x1c	; 28
     d0e:	fd 01       	movw	r30, r26
     d10:	7d 96       	adiw	r30, 0x1d	; 29
	}
	
	for (i = 0; i < REPLY_COMPLETION_BUF_LENGTH; i++)
	{
		Cmd->InquiryResult[i] = 0;
     d12:	11 92       	st	Z+, r1
	for (i = 0; i < REPLY_ERROR_BUF_LENGTH; i++)
	{
		Cmd->RecBufError[i] = 0;
	}
	
	for (i = 0; i < REPLY_COMPLETION_BUF_LENGTH; i++)
     d14:	8f 5f       	subi	r24, 0xFF	; 255
     d16:	80 31       	cpi	r24, 0x10	; 16
     d18:	e1 f7       	brne	.-8      	; 0xd12 <CommandInit+0x5e>
	{
		Cmd->InquiryResult[i] = 0;
	}
	Cmd->InquiryResultLength = 0;
     d1a:	9d 96       	adiw	r26, 0x2d	; 45
     d1c:	1c 92       	st	X, r1
     d1e:	08 95       	ret

00000d20 <CommandLoadBuf>:
void CommandLoadBuf(CMD_REPLY replyType, CAM_CMD* Cmd, uint8_t* Buf, uint8_t BufLen)
{
	uint8_t i=0;
	
	
	switch(replyType & 0xf0)
     d20:	80 7f       	andi	r24, 0xF0	; 240
     d22:	80 35       	cpi	r24, 0x50	; 80
     d24:	41 f0       	breq	.+16     	; 0xd36 <CommandLoadBuf+0x16>
     d26:	80 36       	cpi	r24, 0x60	; 96
     d28:	19 f0       	breq	.+6      	; 0xd30 <CommandLoadBuf+0x10>
     d2a:	80 34       	cpi	r24, 0x40	; 64
     d2c:	b9 f5       	brne	.+110    	; 0xd9c <CommandLoadBuf+0x7c>
     d2e:	06 c0       	rjmp	.+12     	; 0xd3c <CommandLoadBuf+0x1c>
			}
			Cmd->CmdStatus = _CMD_STATUS_FINISH;
			
		break;
		case  _CMD_REPLY_ERROR:
			for (i=0;i<BufLen;i++)
     d30:	21 11       	cpse	r18, r1
     d32:	26 c0       	rjmp	.+76     	; 0xd80 <CommandLoadBuf+0x60>
     d34:	30 c0       	rjmp	.+96     	; 0xd96 <CommandLoadBuf+0x76>
			}
			Cmd->CmdStatus = _CMD_STATUS_ACK;
			
		break;
		case  _CMD_REPLY_COMPLETION:
			for (i=0;i<BufLen;i++)
     d36:	21 11       	cpse	r18, r1
     d38:	12 c0       	rjmp	.+36     	; 0xd5e <CommandLoadBuf+0x3e>
     d3a:	1e c0       	rjmp	.+60     	; 0xd78 <CommandLoadBuf+0x58>
	
	
	switch(replyType & 0xf0)
	{
		case  _CMD_REPLY_ACK:
			for (i=0;i<BufLen;i++)
     d3c:	22 23       	and	r18, r18
     d3e:	61 f0       	breq	.+24     	; 0xd58 <CommandLoadBuf+0x38>
     d40:	fa 01       	movw	r30, r20
     d42:	80 e0       	ldi	r24, 0x00	; 0
     d44:	90 e0       	ldi	r25, 0x00	; 0
			{
				Cmd->RecBufAck[i] = Buf[i];
     d46:	31 91       	ld	r19, Z+
     d48:	db 01       	movw	r26, r22
     d4a:	a8 0f       	add	r26, r24
     d4c:	b9 1f       	adc	r27, r25
     d4e:	16 96       	adiw	r26, 0x06	; 6
     d50:	3c 93       	st	X, r19
     d52:	01 96       	adiw	r24, 0x01	; 1
	
	
	switch(replyType & 0xf0)
	{
		case  _CMD_REPLY_ACK:
			for (i=0;i<BufLen;i++)
     d54:	82 17       	cp	r24, r18
     d56:	b8 f3       	brcs	.-18     	; 0xd46 <CommandLoadBuf+0x26>
			{
				Cmd->RecBufAck[i] = Buf[i];
			}
			Cmd->CmdStatus = _CMD_STATUS_ACK;
     d58:	fb 01       	movw	r30, r22
     d5a:	14 82       	std	Z+4, r1	; 0x04
			
		break;
     d5c:	08 95       	ret
     d5e:	fa 01       	movw	r30, r20
     d60:	db 01       	movw	r26, r22
     d62:	19 96       	adiw	r26, 0x09	; 9
     d64:	4f 5f       	subi	r20, 0xFF	; 255
     d66:	5f 4f       	sbci	r21, 0xFF	; 255
     d68:	21 50       	subi	r18, 0x01	; 1
     d6a:	42 0f       	add	r20, r18
     d6c:	51 1d       	adc	r21, r1
		case  _CMD_REPLY_COMPLETION:
			for (i=0;i<BufLen;i++)
			{
				Cmd->RecBufCompletion[i] = Buf[i];
     d6e:	81 91       	ld	r24, Z+
     d70:	8d 93       	st	X+, r24
			}
			Cmd->CmdStatus = _CMD_STATUS_ACK;
			
		break;
		case  _CMD_REPLY_COMPLETION:
			for (i=0;i<BufLen;i++)
     d72:	e4 17       	cp	r30, r20
     d74:	f5 07       	cpc	r31, r21
     d76:	d9 f7       	brne	.-10     	; 0xd6e <CommandLoadBuf+0x4e>
			{
				Cmd->RecBufCompletion[i] = Buf[i];
			}
			Cmd->CmdStatus = _CMD_STATUS_FINISH;
     d78:	81 e0       	ldi	r24, 0x01	; 1
     d7a:	fb 01       	movw	r30, r22
     d7c:	84 83       	std	Z+4, r24	; 0x04
			
		break;
     d7e:	08 95       	ret
     d80:	94 2f       	mov	r25, r20
     d82:	db 01       	movw	r26, r22
     d84:	59 96       	adiw	r26, 0x19	; 25
		case  _CMD_REPLY_ERROR:
			for (i=0;i<BufLen;i++)
     d86:	e4 2f       	mov	r30, r20
     d88:	f5 2f       	mov	r31, r21
			{
				Cmd->RecBufError[i] = Buf[i];
     d8a:	81 91       	ld	r24, Z+
     d8c:	8d 93       	st	X+, r24
     d8e:	8e 2f       	mov	r24, r30
     d90:	89 1b       	sub	r24, r25
			}
			Cmd->CmdStatus = _CMD_STATUS_FINISH;
			
		break;
		case  _CMD_REPLY_ERROR:
			for (i=0;i<BufLen;i++)
     d92:	82 17       	cp	r24, r18
     d94:	d0 f3       	brcs	.-12     	; 0xd8a <CommandLoadBuf+0x6a>
			{
				Cmd->RecBufError[i] = Buf[i];
			}
			Cmd->CmdStatus = _CMD_STATUS_FINISH;
     d96:	81 e0       	ldi	r24, 0x01	; 1
     d98:	fb 01       	movw	r30, r22
     d9a:	84 83       	std	Z+4, r24	; 0x04
     d9c:	08 95       	ret

00000d9e <GetInquiryResult>:
		break;
	}
}

void GetInquiryResult(CAM_CMD* Cmd)
{
     d9e:	cf 93       	push	r28
     da0:	df 93       	push	r29
     da2:	ec 01       	movw	r28, r24
	uint8_t i = 0;
	uint8_t j = 0;
	
	for (i = 2; i < REPLY_COMPLETION_BUF_LENGTH; i++)
	{
		if (Cmd->RecBufCompletion[i] != REPAY_TAIL)
     da4:	8b 85       	ldd	r24, Y+11	; 0x0b
     da6:	8f 3f       	cpi	r24, 0xFF	; 255
     da8:	59 f4       	brne	.+22     	; 0xdc0 <GetInquiryResult+0x22>
}

void GetInquiryResult(CAM_CMD* Cmd)
{
	uint8_t i = 0;
	uint8_t j = 0;
     daa:	80 e0       	ldi	r24, 0x00	; 0
     dac:	07 c0       	rjmp	.+14     	; 0xdbc <GetInquiryResult+0x1e>
	
	for (i = 2; i < REPLY_COMPLETION_BUF_LENGTH; i++)
	{
		if (Cmd->RecBufCompletion[i] != REPAY_TAIL)
     dae:	91 91       	ld	r25, Z+
     db0:	9f 3f       	cpi	r25, 0xFF	; 255
     db2:	21 f0       	breq	.+8      	; 0xdbc <GetInquiryResult+0x1e>
		{
			Cmd->InquiryResult[j++] = Cmd->RecBufCompletion[i];
     db4:	8f 5f       	subi	r24, 0xFF	; 255
     db6:	9d 93       	st	X+, r25
void GetInquiryResult(CAM_CMD* Cmd)
{
	uint8_t i = 0;
	uint8_t j = 0;
	
	for (i = 2; i < REPLY_COMPLETION_BUF_LENGTH; i++)
     db8:	8e 30       	cpi	r24, 0x0E	; 14
     dba:	c9 f7       	brne	.-14     	; 0xdae <GetInquiryResult+0x10>
			break;
		}
		
	}
	
	Cmd->InquiryResultLength = j;
     dbc:	8d a7       	std	Y+45, r24	; 0x2d
     dbe:	07 c0       	rjmp	.+14     	; 0xdce <GetInquiryResult+0x30>
	
	for (i = 2; i < REPLY_COMPLETION_BUF_LENGTH; i++)
	{
		if (Cmd->RecBufCompletion[i] != REPAY_TAIL)
		{
			Cmd->InquiryResult[j++] = Cmd->RecBufCompletion[i];
     dc0:	8d 8f       	std	Y+29, r24	; 0x1d
     dc2:	fe 01       	movw	r30, r28
     dc4:	3c 96       	adiw	r30, 0x0c	; 12
     dc6:	de 01       	movw	r26, r28
     dc8:	5e 96       	adiw	r26, 0x1e	; 30
     dca:	81 e0       	ldi	r24, 0x01	; 1
     dcc:	f0 cf       	rjmp	.-32     	; 0xdae <GetInquiryResult+0x10>
		}
		
	}
	
	Cmd->InquiryResultLength = j;
}
     dce:	df 91       	pop	r29
     dd0:	cf 91       	pop	r28
     dd2:	08 95       	ret

00000dd4 <CommandHandle>:
	Cmd->InquiryResultLength = 0;
}

void CommandHandle(void)
{
	if(g_stCameraCmd.CmdStatus == _CMD_STATUS_FINISH)
     dd4:	80 91 79 03 	lds	r24, 0x0379
     dd8:	81 30       	cpi	r24, 0x01	; 1
     dda:	81 f4       	brne	.+32     	; 0xdfc <CommandHandle+0x28>
	{
		switch(g_stCameraCmd.CmdType)
     ddc:	80 91 78 03 	lds	r24, 0x0378
     de0:	89 30       	cpi	r24, 0x09	; 9
     de2:	49 f4       	brne	.+18     	; 0xdf6 <CommandHandle+0x22>
					#endif
				}
				
			break;
			case _CMD_TYPE_INQUIRY:
				if ((g_stCameraCmd.CmdReply & _CMD_REPLY_COMPLETION) == _CMD_REPLY_COMPLETION)
     de4:	80 91 7a 03 	lds	r24, 0x037A
     de8:	80 75       	andi	r24, 0x50	; 80
     dea:	80 35       	cpi	r24, 0x50	; 80
     dec:	21 f4       	brne	.+8      	; 0xdf6 <CommandHandle+0x22>
				{
					//Action done
					GetInquiryResult(&g_stCameraCmd);
     dee:	85 e7       	ldi	r24, 0x75	; 117
     df0:	93 e0       	ldi	r25, 0x03	; 3
     df2:	0e 94 cf 06 	call	0xd9e	; 0xd9e <GetInquiryResult>
			break;
			default:
				
			break;
		}
		g_stCameraCmd.CmdStatus = _CMD_STATUS_TOTAL;
     df6:	82 e0       	ldi	r24, 0x02	; 2
     df8:	80 93 79 03 	sts	0x0379, r24
     dfc:	08 95       	ret

00000dfe <CKeyScanReadyTimerEvent>:
// Input Value  : None
// Output Value : None
//--------------------------------------------------
void CKeyScanReadyTimerEvent(void)
{
	SET_KEYSCANREADY();
     dfe:	80 91 5b 03 	lds	r24, 0x035B
     e02:	81 60       	ori	r24, 0x01	; 1
     e04:	80 93 5b 03 	sts	0x035B, r24
     e08:	08 95       	ret

00000e0a <CKeyRepeatEnableTimerEvent>:
// Input Value  : None
// Output Value : None
//--------------------------------------------------
void CKeyRepeatEnableTimerEvent(void)
{
	SET_KEYREPEATSTART();
     e0a:	80 91 5b 03 	lds	r24, 0x035B
     e0e:	84 60       	ori	r24, 0x04	; 4
     e10:	80 93 5b 03 	sts	0x035B, r24
     e14:	08 95       	ret

00000e16 <KeyInit>:
// Input Value  : None
// Output Value : None
//--------------------------------------------------
void KeyInit(void)
{
	DDRB = 0x28;
     e16:	88 e2       	ldi	r24, 0x28	; 40
     e18:	84 b9       	out	0x04, r24	; 4
	PORTB = 0xFF;
     e1a:	8f ef       	ldi	r24, 0xFF	; 255
     e1c:	85 b9       	out	0x05, r24	; 5

	DDRC = 0x00;
     e1e:	17 b8       	out	0x07, r1	; 7
	PORTC = 0xFF;
     e20:	88 b9       	out	0x08, r24	; 8

	DDRD = 0xEA;
     e22:	9a ee       	ldi	r25, 0xEA	; 234
     e24:	9a b9       	out	0x0a, r25	; 10
	PORTD = 0xFF;
     e26:	8b b9       	out	0x0b, r24	; 11
     e28:	08 95       	ret

00000e2a <CKeyScan>:
// Input Value  : None
// Output Value : None
//--------------------------------------------------
#if(_KEY_NUM == 8)
uint16_t CKeyScan(void)
{
     e2a:	cf 93       	push	r28
     e2c:	df 93       	push	r29
	uint8_t valB;
	uint8_t valC;
	uint8_t valD;
	uint8_t ScanCount = 4;
	
	valB = PINB;
     e2e:	33 b1       	in	r19, 0x03	; 3
	valC = PINC;
     e30:	e6 b1       	in	r30, 0x06	; 6
	valD = PIND;
     e32:	69 b1       	in	r22, 0x09	; 9
     e34:	25 e0       	ldi	r18, 0x05	; 5
// Output Value : None
//--------------------------------------------------
#if(_KEY_NUM == 8)
uint16_t CKeyScan(void)
{
	uint16_t ucKeyState = 0;
     e36:	80 e0       	ldi	r24, 0x00	; 0
     e38:	90 e0       	ldi	r25, 0x00	; 0
		if(!(valB & KEY_MASK_AF))
		{
			ucKeyState = ucKeyState | _AF_KEY_MASK;
		}

		if(!(valD & KEY_MASK_WIDE))
     e3a:	a6 2f       	mov	r26, r22
     e3c:	a0 71       	andi	r26, 0x10	; 16
				//break;
			}
		}
		*/

		if(!(valB & KEY_MASK_DISPLAY))
     e3e:	f3 2f       	mov	r31, r19
     e40:	f4 70       	andi	r31, 0x04	; 4
			#ifdef _DEBUG_PRINTF
			//MyPrintf("press Display key\r\n");
			#endif
		}

		if(!(valC & KEY_MASK_TELE))
     e42:	e0 72       	andi	r30, 0x20	; 32
			}

		}
		*/

		if(!(valB & KEY_MASK_TIME))
     e44:	73 2f       	mov	r23, r19
     e46:	70 74       	andi	r23, 0x40	; 64
		{
			ucKeyState = ucKeyState | _TIME_KEY_MASK;
		}
		
		if(!(valD & KEY_MASK_WHITE))
     e48:	64 70       	andi	r22, 0x04	; 4
		{
			ucKeyState = ucKeyState | _WHITE_KEY_MASK;
		}
		
		if(!(valB & KEY_MASK_FREEZE))
     e4a:	53 2f       	mov	r21, r19
     e4c:	51 70       	andi	r21, 0x01	; 1
		{
			ucKeyState = ucKeyState | _FREEZE_KEY_MASK;
		}
		
		if(!(valB & KEY_MASK_FILTER))
     e4e:	43 2f       	mov	r20, r19
     e50:	42 70       	andi	r20, 0x02	; 2
	valC = PINC;
	valD = PIND;
	
	do 
	{
		if(!(valB & KEY_MASK_AF))
     e52:	33 23       	and	r19, r19
     e54:	0c f0       	brlt	.+2      	; 0xe58 <CKeyScan+0x2e>
		{
			ucKeyState = ucKeyState | _AF_KEY_MASK;
     e56:	81 60       	ori	r24, 0x01	; 1
		}

		if(!(valD & KEY_MASK_WIDE))
     e58:	a1 11       	cpse	r26, r1
     e5a:	01 c0       	rjmp	.+2      	; 0xe5e <CKeyScan+0x34>
		{
			ucKeyState = ucKeyState | _WIDE_KEY_MASK;
     e5c:	82 60       	ori	r24, 0x02	; 2
				//break;
			}
		}
		*/

		if(!(valB & KEY_MASK_DISPLAY))
     e5e:	f1 11       	cpse	r31, r1
     e60:	01 c0       	rjmp	.+2      	; 0xe64 <CKeyScan+0x3a>
		{
			ucKeyState = ucKeyState | _DISPLAY_KEY_MASK;
     e62:	84 60       	ori	r24, 0x04	; 4
			#ifdef _DEBUG_PRINTF
			//MyPrintf("press Display key\r\n");
			#endif
		}

		if(!(valC & KEY_MASK_TELE))
     e64:	e1 11       	cpse	r30, r1
     e66:	01 c0       	rjmp	.+2      	; 0xe6a <CKeyScan+0x40>
		{
			ucKeyState = ucKeyState | _TELE_KEY_MASK;
     e68:	88 60       	ori	r24, 0x08	; 8
			}

		}
		*/

		if(!(valB & KEY_MASK_TIME))
     e6a:	71 11       	cpse	r23, r1
     e6c:	01 c0       	rjmp	.+2      	; 0xe70 <CKeyScan+0x46>
		{
			ucKeyState = ucKeyState | _TIME_KEY_MASK;
     e6e:	80 61       	ori	r24, 0x10	; 16
		}
		
		if(!(valD & KEY_MASK_WHITE))
     e70:	61 11       	cpse	r22, r1
     e72:	01 c0       	rjmp	.+2      	; 0xe76 <CKeyScan+0x4c>
		{
			ucKeyState = ucKeyState | _WHITE_KEY_MASK;
     e74:	80 62       	ori	r24, 0x20	; 32
		}
		
		if(!(valB & KEY_MASK_FREEZE))
     e76:	51 11       	cpse	r21, r1
     e78:	01 c0       	rjmp	.+2      	; 0xe7c <CKeyScan+0x52>
		{
			ucKeyState = ucKeyState | _FREEZE_KEY_MASK;
     e7a:	80 64       	ori	r24, 0x40	; 64
		}
		
		if(!(valB & KEY_MASK_FILTER))
     e7c:	41 11       	cpse	r20, r1
     e7e:	01 c0       	rjmp	.+2      	; 0xe82 <CKeyScan+0x58>
		{
			ucKeyState = ucKeyState | _FILTER_KEY_MASK;
     e80:	80 68       	ori	r24, 0x80	; 128
	#else
		//round up by default
		__ticks_dc = (uint32_t)(ceil(fabs(__tmp)));
	#endif

	__builtin_avr_delay_cycles(__ticks_dc);
     e82:	cf e1       	ldi	r28, 0x1F	; 31
     e84:	de e4       	ldi	r29, 0x4E	; 78
     e86:	21 97       	sbiw	r28, 0x01	; 1
     e88:	f1 f7       	brne	.-4      	; 0xe86 <CKeyScan+0x5c>
     e8a:	00 c0       	rjmp	.+0      	; 0xe8c <CKeyScan+0x62>
     e8c:	00 00       	nop
     e8e:	21 50       	subi	r18, 0x01	; 1
		}
		_delay_ms(10);
	} while (ScanCount--);
     e90:	01 f7       	brne	.-64     	; 0xe52 <CKeyScan+0x28>

	if(ucKeyState & _WIDE_KEY_MASK)
     e92:	81 ff       	sbrs	r24, 1
     e94:	03 c0       	rjmp	.+6      	; 0xe9c <CKeyScan+0x72>
	{
		g_ucWideKeyPress = true;
     e96:	21 e0       	ldi	r18, 0x01	; 1
     e98:	20 93 55 03 	sts	0x0355, r18
	}

	if(ucKeyState & _TELE_KEY_MASK)
     e9c:	83 ff       	sbrs	r24, 3
     e9e:	03 c0       	rjmp	.+6      	; 0xea6 <CKeyScan+0x7c>
	{
		g_ucTeleKeyPress = true;
     ea0:	21 e0       	ldi	r18, 0x01	; 1
     ea2:	20 93 53 03 	sts	0x0353, r18
	}

	if(ucKeyState != 0)
     ea6:	00 97       	sbiw	r24, 0x00	; 0
     ea8:	29 f0       	breq	.+10     	; 0xeb4 <CKeyScan+0x8a>
	{
		CLR_KEYSCANREADY();
		CLR_KEYSCANSTART();
     eaa:	20 91 5b 03 	lds	r18, 0x035B
     eae:	2c 7f       	andi	r18, 0xFC	; 252
     eb0:	20 93 5b 03 	sts	0x035B, r18
	}

	return ucKeyState;
}
     eb4:	df 91       	pop	r29
     eb6:	cf 91       	pop	r28
     eb8:	08 95       	ret

00000eba <CKeyScanReady>:
// Input Value  : None
// Output Value : Key scan flag
//--------------------------------------------------
bool CKeyScanReady(void)
{
	if(GET_KEYSCANSTART() && GET_KEYSCANREADY())
     eba:	80 91 5b 03 	lds	r24, 0x035B
     ebe:	28 2f       	mov	r18, r24
     ec0:	22 70       	andi	r18, 0x02	; 2
     ec2:	98 2f       	mov	r25, r24
     ec4:	93 70       	andi	r25, 0x03	; 3
     ec6:	93 30       	cpi	r25, 0x03	; 3
     ec8:	79 f0       	breq	.+30     	; 0xee8 <CKeyScanReady+0x2e>
	{
		return true;
	}
	else if(!GET_KEYSCANSTART())
     eca:	21 11       	cpse	r18, r1
     ecc:	0f c0       	rjmp	.+30     	; 0xeec <CKeyScanReady+0x32>
	{
		SET_KEYSCANSTART();
     ece:	82 60       	ori	r24, 0x02	; 2
     ed0:	80 93 5b 03 	sts	0x035B, r24
		CTimerReactiveTimerEvent(MSEC(KEY_DEBOUNCE_TIME), CKeyScanReadyTimerEvent);
     ed4:	4f ef       	ldi	r20, 0xFF	; 255
     ed6:	56 e0       	ldi	r21, 0x06	; 6
     ed8:	64 e6       	ldi	r22, 0x64	; 100
     eda:	70 e0       	ldi	r23, 0x00	; 0
     edc:	80 e0       	ldi	r24, 0x00	; 0
     ede:	90 e0       	ldi	r25, 0x00	; 0
     ee0:	0e 94 5b 14 	call	0x28b6	; 0x28b6 <CTimerReactiveTimerEvent>
	}
	return false;
     ee4:	80 e0       	ldi	r24, 0x00	; 0
     ee6:	08 95       	ret
//--------------------------------------------------
bool CKeyScanReady(void)
{
	if(GET_KEYSCANSTART() && GET_KEYSCANREADY())
	{
		return true;
     ee8:	81 e0       	ldi	r24, 0x01	; 1
     eea:	08 95       	ret
	else if(!GET_KEYSCANSTART())
	{
		SET_KEYSCANSTART();
		CTimerReactiveTimerEvent(MSEC(KEY_DEBOUNCE_TIME), CKeyScanReadyTimerEvent);
	}
	return false;
     eec:	80 e0       	ldi	r24, 0x00	; 0
}
     eee:	08 95       	ret

00000ef0 <CKeyMessageConvert>:
//                ucKeyMsg      --> Key message
// Output Value : None
//--------------------------------------------------
void CKeyMessageConvert(uint16_t ucKeyMask, uint8_t ucKeyMsg)
{
	if((g_ucKeyStatePrev ^ g_ucKeyStateCurr) & ucKeyMask)
     ef0:	40 91 56 03 	lds	r20, 0x0356
     ef4:	50 91 57 03 	lds	r21, 0x0357
     ef8:	20 91 58 03 	lds	r18, 0x0358
     efc:	30 91 59 03 	lds	r19, 0x0359
     f00:	24 27       	eor	r18, r20
     f02:	35 27       	eor	r19, r21
     f04:	82 23       	and	r24, r18
     f06:	93 23       	and	r25, r19
     f08:	89 2b       	or	r24, r25
     f0a:	19 f0       	breq	.+6      	; 0xf12 <CKeyMessageConvert+0x22>
	{
		g_ucKeyMessage = ucKeyMsg;
     f0c:	60 93 5a 03 	sts	0x035A, r22
     f10:	08 95       	ret
		//MyPrintf("Current key num is: S%d\r\n",g_ucKeyMessage + 1);
		#endif
	}
	else
	{
		if(GET_KEYREPEATENABLE())
     f12:	80 91 5b 03 	lds	r24, 0x035B
     f16:	83 ff       	sbrs	r24, 3
     f18:	0d c0       	rjmp	.+26     	; 0xf34 <CKeyMessageConvert+0x44>
		{
			if(GET_KEYREPEATSTART())
     f1a:	82 ff       	sbrs	r24, 2
     f1c:	03 c0       	rjmp	.+6      	; 0xf24 <CKeyMessageConvert+0x34>
			{
				g_ucKeyMessage = ucKeyMsg;
     f1e:	60 93 5a 03 	sts	0x035A, r22
     f22:	08 95       	ret
				//CLR_KEYREPEATSTART();
			}
			else
			{
				CTimerActiveTimerEvent(MSEC(KEY_REPEAT_START_TIME), CKeyRepeatEnableTimerEvent);
     f24:	45 e0       	ldi	r20, 0x05	; 5
     f26:	57 e0       	ldi	r21, 0x07	; 7
     f28:	6c e2       	ldi	r22, 0x2C	; 44
     f2a:	71 e0       	ldi	r23, 0x01	; 1
     f2c:	80 e0       	ldi	r24, 0x00	; 0
     f2e:	90 e0       	ldi	r25, 0x00	; 0
     f30:	0e 94 fb 13 	call	0x27f6	; 0x27f6 <CTimerActiveTimerEvent>
     f34:	08 95       	ret

00000f36 <CKeyMessageProc>:
// Input Value  : None
// Output Value : None
//--------------------------------------------------
void CKeyMessageProc(void)
{
	switch(g_ucKeyStateCurr)
     f36:	80 91 56 03 	lds	r24, 0x0356
     f3a:	90 91 57 03 	lds	r25, 0x0357
     f3e:	8a 30       	cpi	r24, 0x0A	; 10
     f40:	91 05       	cpc	r25, r1
     f42:	09 f4       	brne	.+2      	; 0xf46 <CKeyMessageProc+0x10>
     f44:	6b c0       	rjmp	.+214    	; 0x101c <CKeyMessageProc+0xe6>
     f46:	88 f4       	brcc	.+34     	; 0xf6a <CKeyMessageProc+0x34>
     f48:	84 30       	cpi	r24, 0x04	; 4
     f4a:	91 05       	cpc	r25, r1
     f4c:	89 f1       	breq	.+98     	; 0xfb0 <CKeyMessageProc+0x7a>
     f4e:	30 f4       	brcc	.+12     	; 0xf5c <CKeyMessageProc+0x26>
     f50:	81 30       	cpi	r24, 0x01	; 1
     f52:	91 05       	cpc	r25, r1
     f54:	09 f1       	breq	.+66     	; 0xf98 <CKeyMessageProc+0x62>
     f56:	02 97       	sbiw	r24, 0x02	; 2
     f58:	29 f1       	breq	.+74     	; 0xfa4 <CKeyMessageProc+0x6e>
     f5a:	66 c0       	rjmp	.+204    	; 0x1028 <CKeyMessageProc+0xf2>
     f5c:	86 30       	cpi	r24, 0x06	; 6
     f5e:	91 05       	cpc	r25, r1
     f60:	09 f4       	brne	.+2      	; 0xf64 <CKeyMessageProc+0x2e>
     f62:	50 c0       	rjmp	.+160    	; 0x1004 <CKeyMessageProc+0xce>
     f64:	08 97       	sbiw	r24, 0x08	; 8
     f66:	51 f1       	breq	.+84     	; 0xfbc <CKeyMessageProc+0x86>
     f68:	5f c0       	rjmp	.+190    	; 0x1028 <CKeyMessageProc+0xf2>
     f6a:	80 32       	cpi	r24, 0x20	; 32
     f6c:	91 05       	cpc	r25, r1
     f6e:	91 f1       	breq	.+100    	; 0xfd4 <CKeyMessageProc+0x9e>
     f70:	38 f4       	brcc	.+14     	; 0xf80 <CKeyMessageProc+0x4a>
     f72:	8c 30       	cpi	r24, 0x0C	; 12
     f74:	91 05       	cpc	r25, r1
     f76:	09 f4       	brne	.+2      	; 0xf7a <CKeyMessageProc+0x44>
     f78:	4b c0       	rjmp	.+150    	; 0x1010 <CKeyMessageProc+0xda>
     f7a:	40 97       	sbiw	r24, 0x10	; 16
     f7c:	29 f1       	breq	.+74     	; 0xfc8 <CKeyMessageProc+0x92>
     f7e:	54 c0       	rjmp	.+168    	; 0x1028 <CKeyMessageProc+0xf2>
     f80:	80 38       	cpi	r24, 0x80	; 128
     f82:	91 05       	cpc	r25, r1
     f84:	99 f1       	breq	.+102    	; 0xfec <CKeyMessageProc+0xb6>
     f86:	81 15       	cp	r24, r1
     f88:	21 e0       	ldi	r18, 0x01	; 1
     f8a:	92 07       	cpc	r25, r18
     f8c:	a9 f1       	breq	.+106    	; 0xff8 <CKeyMessageProc+0xc2>
     f8e:	80 34       	cpi	r24, 0x40	; 64
     f90:	91 05       	cpc	r25, r1
     f92:	09 f0       	breq	.+2      	; 0xf96 <CKeyMessageProc+0x60>
     f94:	49 c0       	rjmp	.+146    	; 0x1028 <CKeyMessageProc+0xf2>
     f96:	24 c0       	rjmp	.+72     	; 0xfe0 <CKeyMessageProc+0xaa>
	{
		case _AF_KEY_MASK:
			CKeyMessageConvert(_AF_KEY_MASK, _AF_KEY_MESSAGE);
     f98:	60 e0       	ldi	r22, 0x00	; 0
     f9a:	81 e0       	ldi	r24, 0x01	; 1
     f9c:	90 e0       	ldi	r25, 0x00	; 0
     f9e:	0e 94 78 07 	call	0xef0	; 0xef0 <CKeyMessageConvert>
		break;
     fa2:	08 95       	ret

		case _WIDE_KEY_MASK:
			CKeyMessageConvert(_WIDE_KEY_MASK, _WIDE_KEY_MESSAGE);
     fa4:	61 e0       	ldi	r22, 0x01	; 1
     fa6:	82 e0       	ldi	r24, 0x02	; 2
     fa8:	90 e0       	ldi	r25, 0x00	; 0
     faa:	0e 94 78 07 	call	0xef0	; 0xef0 <CKeyMessageConvert>
		break;
     fae:	08 95       	ret

		case _DISPLAY_KEY_MASK:
			CKeyMessageConvert(_DISPLAY_KEY_MASK, _DISPLAY_KEY_MESSAGE);
     fb0:	62 e0       	ldi	r22, 0x02	; 2
     fb2:	84 e0       	ldi	r24, 0x04	; 4
     fb4:	90 e0       	ldi	r25, 0x00	; 0
     fb6:	0e 94 78 07 	call	0xef0	; 0xef0 <CKeyMessageConvert>
		break;
     fba:	08 95       	ret

		case _TELE_KEY_MASK:
			CKeyMessageConvert(_TELE_KEY_MASK, _TELE_KEY_MESSAGE);
     fbc:	63 e0       	ldi	r22, 0x03	; 3
     fbe:	88 e0       	ldi	r24, 0x08	; 8
     fc0:	90 e0       	ldi	r25, 0x00	; 0
     fc2:	0e 94 78 07 	call	0xef0	; 0xef0 <CKeyMessageConvert>
		break;
     fc6:	08 95       	ret
		
		case _TIME_KEY_MASK:
			CKeyMessageConvert(_TIME_KEY_MASK, _TIME_KEY_MESSAGE);
     fc8:	64 e0       	ldi	r22, 0x04	; 4
     fca:	80 e1       	ldi	r24, 0x10	; 16
     fcc:	90 e0       	ldi	r25, 0x00	; 0
     fce:	0e 94 78 07 	call	0xef0	; 0xef0 <CKeyMessageConvert>
		break;
     fd2:	08 95       	ret
		
		case _WHITE_KEY_MASK:
			CKeyMessageConvert(_WHITE_KEY_MASK, _WHITE_KEY_MESSAGE);
     fd4:	65 e0       	ldi	r22, 0x05	; 5
     fd6:	80 e2       	ldi	r24, 0x20	; 32
     fd8:	90 e0       	ldi	r25, 0x00	; 0
     fda:	0e 94 78 07 	call	0xef0	; 0xef0 <CKeyMessageConvert>
		break;
     fde:	08 95       	ret
		
		case _FREEZE_KEY_MASK:
			CKeyMessageConvert(_FREEZE_KEY_MASK, _FREEZE_KEY_MESSAGE);
     fe0:	66 e0       	ldi	r22, 0x06	; 6
     fe2:	80 e4       	ldi	r24, 0x40	; 64
     fe4:	90 e0       	ldi	r25, 0x00	; 0
     fe6:	0e 94 78 07 	call	0xef0	; 0xef0 <CKeyMessageConvert>
		break;
     fea:	08 95       	ret
		
		case _FILTER_KEY_MASK:
			CKeyMessageConvert(_FILTER_KEY_MASK, _FILTER_KEY_MESSAGE);
     fec:	67 e0       	ldi	r22, 0x07	; 7
     fee:	80 e8       	ldi	r24, 0x80	; 128
     ff0:	90 e0       	ldi	r25, 0x00	; 0
     ff2:	0e 94 78 07 	call	0xef0	; 0xef0 <CKeyMessageConvert>
		break;
     ff6:	08 95       	ret

		case _EM_KEY_MASK:
			CKeyMessageConvert(_EM_KEY_MASK, _EM_KEY_MESSAGE);
     ff8:	68 e0       	ldi	r22, 0x08	; 8
     ffa:	80 e0       	ldi	r24, 0x00	; 0
     ffc:	91 e0       	ldi	r25, 0x01	; 1
     ffe:	0e 94 78 07 	call	0xef0	; 0xef0 <CKeyMessageConvert>
		break;
    1002:	08 95       	ret
		
		case _AWB_KEY_MASK:
			CKeyMessageConvert(_AWB_KEY_MASK, _AWB_KEY_MESSAGE);
    1004:	69 e0       	ldi	r22, 0x09	; 9
    1006:	86 e0       	ldi	r24, 0x06	; 6
    1008:	90 e0       	ldi	r25, 0x00	; 0
    100a:	0e 94 78 07 	call	0xef0	; 0xef0 <CKeyMessageConvert>
		break;
    100e:	08 95       	ret
		
		case _MWB_KEY_MASK:
			CKeyMessageConvert(_MWB_KEY_MASK, _MWB_KEY_MESSAGE);
    1010:	6a e0       	ldi	r22, 0x0A	; 10
    1012:	8c e0       	ldi	r24, 0x0C	; 12
    1014:	90 e0       	ldi	r25, 0x00	; 0
    1016:	0e 94 78 07 	call	0xef0	; 0xef0 <CKeyMessageConvert>
		break;
    101a:	08 95       	ret
		
		case _RB_SWITCH_KEY_MASK:
			CKeyMessageConvert(_RB_SWITCH_KEY_MASK, _RB_SWITCH_KEY_MESSAGE);
    101c:	6b e0       	ldi	r22, 0x0B	; 11
    101e:	8a e0       	ldi	r24, 0x0A	; 10
    1020:	90 e0       	ldi	r25, 0x00	; 0
    1022:	0e 94 78 07 	call	0xef0	; 0xef0 <CKeyMessageConvert>
		break;
    1026:	08 95       	ret
		
		default:
		CLR_KEYREPEATSTART();
    1028:	80 91 5b 03 	lds	r24, 0x035B
    102c:	8b 7f       	andi	r24, 0xFB	; 251
    102e:	80 93 5b 03 	sts	0x035B, r24
		CTimerCancelTimerEvent(CKeyRepeatEnableTimerEvent);
    1032:	85 e0       	ldi	r24, 0x05	; 5
    1034:	97 e0       	ldi	r25, 0x07	; 7
    1036:	0e 94 93 14 	call	0x2926	; 0x2926 <CTimerCancelTimerEvent>
    103a:	08 95       	ret

0000103c <CKeyHandle>:
// Output Value : None
//--------------------------------------------------
void CKeyHandle(void)
{
	//static uint8_t uiKeyCount = 0;
	g_ucKeyMessage = _NONE_KEY_MESSAGE;
    103c:	8c e0       	ldi	r24, 0x0C	; 12
    103e:	80 93 5a 03 	sts	0x035A, r24
	
	if(CKeyScanReady())
    1042:	0e 94 5d 07 	call	0xeba	; 0xeba <CKeyScanReady>
    1046:	88 23       	and	r24, r24
    1048:	21 f1       	breq	.+72     	; 0x1092 <CKeyHandle+0x56>
	{
		g_ucKeyStatePrev = g_ucKeyStateCurr;
    104a:	80 91 56 03 	lds	r24, 0x0356
    104e:	90 91 57 03 	lds	r25, 0x0357
    1052:	90 93 59 03 	sts	0x0359, r25
    1056:	80 93 58 03 	sts	0x0358, r24
		g_ucKeyStateCurr = CKeyScan();
    105a:	0e 94 15 07 	call	0xe2a	; 0xe2a <CKeyScan>
    105e:	90 93 57 03 	sts	0x0357, r25
    1062:	80 93 56 03 	sts	0x0356, r24

		// You can set a key as repeatable like this
		if((_WIDE_KEY_MASK == g_ucKeyStateCurr || _TELE_KEY_MASK == g_ucKeyStateCurr)&&(g_stStatusCmd.ZoomMode == _ZOOM_MODE_GRADING))
    1066:	82 30       	cpi	r24, 0x02	; 2
    1068:	91 05       	cpc	r25, r1
    106a:	11 f0       	breq	.+4      	; 0x1070 <CKeyHandle+0x34>
    106c:	08 97       	sbiw	r24, 0x08	; 8
    106e:	51 f4       	brne	.+20     	; 0x1084 <CKeyHandle+0x48>
    1070:	80 91 c5 03 	lds	r24, 0x03C5
    1074:	81 11       	cpse	r24, r1
    1076:	06 c0       	rjmp	.+12     	; 0x1084 <CKeyHandle+0x48>
		{
			//if (uiKeyCount++>1)
			{
				//uiKeyCount = 0;
				SET_KEYREPEATENABLE();
    1078:	80 91 5b 03 	lds	r24, 0x035B
    107c:	88 60       	ori	r24, 0x08	; 8
    107e:	80 93 5b 03 	sts	0x035B, r24
    1082:	05 c0       	rjmp	.+10     	; 0x108e <CKeyHandle+0x52>
// 			}			
		}
		else
		{
			//uiKeyCount = 0;
			CLR_KEYREPEATENABLE();
    1084:	80 91 5b 03 	lds	r24, 0x035B
    1088:	87 7f       	andi	r24, 0xF7	; 247
    108a:	80 93 5b 03 	sts	0x035B, r24
		}

		CKeyMessageProc();
    108e:	0e 94 9b 07 	call	0xf36	; 0xf36 <CKeyMessageProc>
    1092:	08 95       	ret

00001094 <LedInit>:
 */ 
#include "include.h"

void LedInit(void)
{
	DDRD |= (1<<5);
    1094:	55 9a       	sbi	0x0a, 5	; 10
    1096:	08 95       	ret

00001098 <LedOn>:
}

void LedOn(void)
{
	PORTD &= 0xdf;
    1098:	5d 98       	cbi	0x0b, 5	; 11
    109a:	08 95       	ret

0000109c <LedOff>:
}

void LedOff(void)
{
	PORTD |= (1<<PD5);
    109c:	5d 9a       	sbi	0x0b, 5	; 11
    109e:	08 95       	ret

000010a0 <LedFlashing>:
}

void LedFlashing(uint8_t times)
{
    10a0:	cf 93       	push	r28
    10a2:	df 93       	push	r29
    10a4:	d8 2f       	mov	r29, r24
	uint8_t i = 0;
	
	for (i = 0; i < times; i++)
    10a6:	88 23       	and	r24, r24
    10a8:	d1 f0       	breq	.+52     	; 0x10de <LedFlashing+0x3e>
    10aa:	c0 e0       	ldi	r28, 0x00	; 0
	{
		LedOff();
    10ac:	0e 94 4e 08 	call	0x109c	; 0x109c <LedOff>
    10b0:	2f e7       	ldi	r18, 0x7F	; 127
    10b2:	8a e1       	ldi	r24, 0x1A	; 26
    10b4:	96 e0       	ldi	r25, 0x06	; 6
    10b6:	21 50       	subi	r18, 0x01	; 1
    10b8:	80 40       	sbci	r24, 0x00	; 0
    10ba:	90 40       	sbci	r25, 0x00	; 0
    10bc:	e1 f7       	brne	.-8      	; 0x10b6 <LedFlashing+0x16>
    10be:	00 c0       	rjmp	.+0      	; 0x10c0 <LedFlashing+0x20>
    10c0:	00 00       	nop
		_delay_ms(250);
		LedOn();
    10c2:	0e 94 4c 08 	call	0x1098	; 0x1098 <LedOn>
    10c6:	2f e7       	ldi	r18, 0x7F	; 127
    10c8:	8a e1       	ldi	r24, 0x1A	; 26
    10ca:	96 e0       	ldi	r25, 0x06	; 6
    10cc:	21 50       	subi	r18, 0x01	; 1
    10ce:	80 40       	sbci	r24, 0x00	; 0
    10d0:	90 40       	sbci	r25, 0x00	; 0
    10d2:	e1 f7       	brne	.-8      	; 0x10cc <LedFlashing+0x2c>
    10d4:	00 c0       	rjmp	.+0      	; 0x10d6 <LedFlashing+0x36>
    10d6:	00 00       	nop

void LedFlashing(uint8_t times)
{
	uint8_t i = 0;
	
	for (i = 0; i < times; i++)
    10d8:	cf 5f       	subi	r28, 0xFF	; 255
    10da:	cd 13       	cpse	r28, r29
    10dc:	e7 cf       	rjmp	.-50     	; 0x10ac <LedFlashing+0xc>
		LedOff();
		_delay_ms(250);
		LedOn();
		_delay_ms(250);
	}
    10de:	df 91       	pop	r29
    10e0:	cf 91       	pop	r28
    10e2:	08 95       	ret

000010e4 <SystemInit>:
#include "include.h"

void SystemInit(void)
{
	//Initial T1 as 1ms counter
	CTimerInit(1);
    10e4:	81 e0       	ldi	r24, 0x01	; 1
    10e6:	0e 94 e6 12 	call	0x25cc	; 0x25cc <CTimerInit>
	
	//Led IO initial
	LedInit();
    10ea:	0e 94 4a 08 	call	0x1094	; 0x1094 <LedInit>
	
	//Key IO initial
	KeyInit();
    10ee:	0e 94 0b 07 	call	0xe16	; 0xe16 <KeyInit>
	
	//Initial event array
	CTimerInitialTimerEvent();
    10f2:	0e 94 b3 14 	call	0x2966	; 0x2966 <CTimerInitialTimerEvent>
	
	//Initital remote IO as input IO
	RemoteInit();
    10f6:	0e 94 9e 11 	call	0x233c	; 0x233c <RemoteInit>
	
	//Usart initial
	MY_USART_Init();
    10fa:	0e 94 1d 18 	call	0x303a	; 0x303a <MY_USART_Init>
	
	//Interrupt enable
	sei();
    10fe:	78 94       	sei
    1100:	08 95       	ret

00001102 <PowerDetect>:

}
void PowerDetect(void)
{
	//Detect key when power on
	if (CKeyScan() == _DISPLAY_KEY_MASK || CRemoteScan() == _DISPLAY_KEY_MASK)
    1102:	0e 94 15 07 	call	0xe2a	; 0xe2a <CKeyScan>
    1106:	04 97       	sbiw	r24, 0x04	; 4
    1108:	21 f0       	breq	.+8      	; 0x1112 <PowerDetect+0x10>
    110a:	0e 94 bf 11 	call	0x237e	; 0x237e <CRemoteScan>
    110e:	84 30       	cpi	r24, 0x04	; 4
    1110:	89 f4       	brne	.+34     	; 0x1134 <PowerDetect+0x32>
	{
		g_ucKeyStateCurr = g_ucKeyStatePrev = _DISPLAY_KEY_MASK;
    1112:	84 e0       	ldi	r24, 0x04	; 4
    1114:	90 e0       	ldi	r25, 0x00	; 0
    1116:	90 93 59 03 	sts	0x0359, r25
    111a:	80 93 58 03 	sts	0x0358, r24
    111e:	90 93 57 03 	sts	0x0357, r25
    1122:	80 93 56 03 	sts	0x0356, r24
		g_ucRemoteStateCurr = g_ucRemoteStatePrev = _DISPLAY_KEY_MASK;
    1126:	80 93 63 03 	sts	0x0363, r24
    112a:	80 93 66 03 	sts	0x0366, r24
		g_stStatusCmd.bShowVersion = true;
    112e:	81 e0       	ldi	r24, 0x01	; 1
    1130:	80 93 c2 03 	sts	0x03C2, r24
    1134:	08 95       	ret

00001136 <main>:
	}
}
int main(void)
{	
	//System initial
	SystemInit();
    1136:	0e 94 72 08 	call	0x10e4	; 0x10e4 <SystemInit>
	
	//Initial command struct
	CommandInit(&g_stCameraCmd);
    113a:	85 e7       	ldi	r24, 0x75	; 117
    113c:	93 e0       	ldi	r25, 0x03	; 3
    113e:	0e 94 5a 06 	call	0xcb4	; 0xcb4 <CommandInit>
	
	//Initial status struct
	StatusInit(&g_stStatusCmd);
    1142:	83 ea       	ldi	r24, 0xA3	; 163
    1144:	93 e0       	ldi	r25, 0x03	; 3
    1146:	0e 94 95 12 	call	0x252a	; 0x252a <StatusInit>
	
	PowerDetect();
    114a:	0e 94 81 08 	call	0x1102	; 0x1102 <PowerDetect>
	
	ProductInfoInit(&g_stProductInfo);
    114e:	88 ec       	ldi	r24, 0xC8	; 200
    1150:	93 e0       	ldi	r25, 0x03	; 3
    1152:	0e 94 bd 12 	call	0x257a	; 0x257a <ProductInfoInit>
	
	//Initial Camera
	InitCamera();
    1156:	0e 94 46 09 	call	0x128c	; 0x128c <InitCamera>
	
	while(1)
    {	
		//Key detect and set a key message
		CKeyHandle();
    115a:	0e 94 1e 08 	call	0x103c	; 0x103c <CKeyHandle>
		
		//Event count down timer handler
		CTimerHandle();
    115e:	0e 94 f9 12 	call	0x25f2	; 0x25f2 <CTimerHandle>
		
		//Remote IO detect and set a remote message
		CRemoteHandle();
    1162:	0e 94 74 12 	call	0x24e8	; 0x24e8 <CRemoteHandle>
		
		//Key message and remote message handler
		CMessageHandle();
    1166:	0e 94 41 11 	call	0x2282	; 0x2282 <CMessageHandle>
		
		//Release Key Message Handle
		CReleaseKeyMessageHandle();
    116a:	0e 94 47 0d 	call	0x1a8e	; 0x1a8e <CReleaseKeyMessageHandle>
		
		//Do something when command finished
		CommandHandle();
    116e:	0e 94 ea 06 	call	0xdd4	; 0xdd4 <CommandHandle>

		//White balance handle
		WhiteBalanceHandle();
    1172:	0e 94 7d 0e 	call	0x1cfa	; 0x1cfa <WhiteBalanceHandle>
		
		if (true == g_bTimerChange || true == g_bTitle1Change || true == g_bTitle2Change)
    1176:	80 91 69 03 	lds	r24, 0x0369
    117a:	81 11       	cpse	r24, r1
    117c:	08 c0       	rjmp	.+16     	; 0x118e <main+0x58>
    117e:	80 91 72 03 	lds	r24, 0x0372
    1182:	81 11       	cpse	r24, r1
    1184:	04 c0       	rjmp	.+8      	; 0x118e <main+0x58>
    1186:	80 91 71 03 	lds	r24, 0x0371
    118a:	88 23       	and	r24, r24
    118c:	31 f3       	breq	.-52     	; 0x115a <main+0x24>
    118e:	8f e1       	ldi	r24, 0x1F	; 31
    1190:	9e e4       	ldi	r25, 0x4E	; 78
    1192:	01 97       	sbiw	r24, 0x01	; 1
    1194:	f1 f7       	brne	.-4      	; 0x1192 <main+0x5c>
    1196:	00 c0       	rjmp	.+0      	; 0x1198 <main+0x62>
    1198:	00 00       	nop
		{
			_delay_ms(10);
			TitleHandle();
    119a:	0e 94 8e 16 	call	0x2d1c	; 0x2d1c <TitleHandle>
    119e:	dd cf       	rjmp	.-70     	; 0x115a <main+0x24>

000011a0 <IsInTheTable>:

bool IsInTheTable(const uint16_t* data, uint8_t dataLen, uint16_t value)
{
	uint8_t i = 0;
	
	for(i=0;i<dataLen;i++)
    11a0:	66 23       	and	r22, r22
    11a2:	99 f0       	breq	.+38     	; 0x11ca <IsInTheTable+0x2a>
	{
		if(data[i]==value)
    11a4:	fc 01       	movw	r30, r24
    11a6:	20 81       	ld	r18, Z
    11a8:	31 81       	ldd	r19, Z+1	; 0x01
    11aa:	24 17       	cp	r18, r20
    11ac:	35 07       	cpc	r19, r21
    11ae:	79 f0       	breq	.+30     	; 0x11ce <IsInTheTable+0x2e>
    11b0:	32 96       	adiw	r30, 0x02	; 2

bool IsInTheTable(const uint16_t* data, uint8_t dataLen, uint16_t value)
{
	uint8_t i = 0;
	
	for(i=0;i<dataLen;i++)
    11b2:	20 e0       	ldi	r18, 0x00	; 0
    11b4:	05 c0       	rjmp	.+10     	; 0x11c0 <IsInTheTable+0x20>
	{
		if(data[i]==value)
    11b6:	81 91       	ld	r24, Z+
    11b8:	91 91       	ld	r25, Z+
    11ba:	84 17       	cp	r24, r20
    11bc:	95 07       	cpc	r25, r21
    11be:	49 f0       	breq	.+18     	; 0x11d2 <IsInTheTable+0x32>

bool IsInTheTable(const uint16_t* data, uint8_t dataLen, uint16_t value)
{
	uint8_t i = 0;
	
	for(i=0;i<dataLen;i++)
    11c0:	2f 5f       	subi	r18, 0xFF	; 255
    11c2:	26 13       	cpse	r18, r22
    11c4:	f8 cf       	rjmp	.-16     	; 0x11b6 <IsInTheTable+0x16>
	{
		if(data[i]==value)
			return true;
	}
	return false;
    11c6:	80 e0       	ldi	r24, 0x00	; 0
    11c8:	08 95       	ret
    11ca:	80 e0       	ldi	r24, 0x00	; 0
    11cc:	08 95       	ret
	uint8_t i = 0;
	
	for(i=0;i<dataLen;i++)
	{
		if(data[i]==value)
			return true;
    11ce:	81 e0       	ldi	r24, 0x01	; 1
    11d0:	08 95       	ret
    11d2:	81 e0       	ldi	r24, 0x01	; 1
	}
	return false;
}
    11d4:	08 95       	ret

000011d6 <GetCamType>:

void GetCamType(uint16_t value)
{
    11d6:	cf 93       	push	r28
    11d8:	df 93       	push	r29
    11da:	ec 01       	movw	r28, r24
	if(IsInTheTable(t480,2,value))
    11dc:	ac 01       	movw	r20, r24
    11de:	62 e0       	ldi	r22, 0x02	; 2
    11e0:	8d e4       	ldi	r24, 0x4D	; 77
    11e2:	93 e0       	ldi	r25, 0x03	; 3
    11e4:	0e 94 d0 08 	call	0x11a0	; 0x11a0 <IsInTheTable>
    11e8:	88 23       	and	r24, r24
    11ea:	19 f0       	breq	.+6      	; 0x11f2 <GetCamType+0x1c>
	{
		g_stStatusCmd.uiModeID = _CAM_480;
    11ec:	10 92 a5 03 	sts	0x03A5, r1
    11f0:	27 c0       	rjmp	.+78     	; 0x1240 <GetCamType+0x6a>
	}
	else if(IsInTheTable(t1020,1,value))
    11f2:	ae 01       	movw	r20, r28
    11f4:	61 e0       	ldi	r22, 0x01	; 1
    11f6:	8b e4       	ldi	r24, 0x4B	; 75
    11f8:	93 e0       	ldi	r25, 0x03	; 3
    11fa:	0e 94 d0 08 	call	0x11a0	; 0x11a0 <IsInTheTable>
    11fe:	88 23       	and	r24, r24
    1200:	21 f0       	breq	.+8      	; 0x120a <GetCamType+0x34>
	{
		g_stStatusCmd.uiModeID = _CAM_1020;
    1202:	81 e0       	ldi	r24, 0x01	; 1
    1204:	80 93 a5 03 	sts	0x03A5, r24
    1208:	1b c0       	rjmp	.+54     	; 0x1240 <GetCamType+0x6a>
	}
	else if(IsInTheTable(t3310,1,value))
    120a:	ae 01       	movw	r20, r28
    120c:	61 e0       	ldi	r22, 0x01	; 1
    120e:	89 e4       	ldi	r24, 0x49	; 73
    1210:	93 e0       	ldi	r25, 0x03	; 3
    1212:	0e 94 d0 08 	call	0x11a0	; 0x11a0 <IsInTheTable>
    1216:	88 23       	and	r24, r24
    1218:	21 f0       	breq	.+8      	; 0x1222 <GetCamType+0x4c>
	{
		g_stStatusCmd.uiModeID = _CAM_3310;
    121a:	82 e0       	ldi	r24, 0x02	; 2
    121c:	80 93 a5 03 	sts	0x03A5, r24
    1220:	0f c0       	rjmp	.+30     	; 0x1240 <GetCamType+0x6a>
	}
	else if(IsInTheTable(t6300,2,value))
    1222:	ae 01       	movw	r20, r28
    1224:	62 e0       	ldi	r22, 0x02	; 2
    1226:	85 e4       	ldi	r24, 0x45	; 69
    1228:	93 e0       	ldi	r25, 0x03	; 3
    122a:	0e 94 d0 08 	call	0x11a0	; 0x11a0 <IsInTheTable>
    122e:	88 23       	and	r24, r24
    1230:	21 f0       	breq	.+8      	; 0x123a <GetCamType+0x64>
	{
		g_stStatusCmd.uiModeID = _CAM_6300;
    1232:	83 e0       	ldi	r24, 0x03	; 3
    1234:	80 93 a5 03 	sts	0x03A5, r24
    1238:	03 c0       	rjmp	.+6      	; 0x1240 <GetCamType+0x6a>
	}
	else
	{
		g_stStatusCmd.uiModeID = _CAM_7500;
    123a:	85 e0       	ldi	r24, 0x05	; 5
    123c:	80 93 a5 03 	sts	0x03A5, r24
	}
}
    1240:	df 91       	pop	r29
    1242:	cf 91       	pop	r28
    1244:	08 95       	ret

00001246 <InitFlashDelay>:
void InitFlashDelay(void)
{
	switch(g_stStatusCmd.uiModeID)
    1246:	80 91 a5 03 	lds	r24, 0x03A5
    124a:	82 30       	cpi	r24, 0x02	; 2
    124c:	99 f0       	breq	.+38     	; 0x1274 <InitFlashDelay+0x2e>
    124e:	28 f4       	brcc	.+10     	; 0x125a <InitFlashDelay+0x14>
    1250:	88 23       	and	r24, r24
    1252:	41 f0       	breq	.+16     	; 0x1264 <InitFlashDelay+0x1e>
    1254:	81 30       	cpi	r24, 0x01	; 1
    1256:	51 f0       	breq	.+20     	; 0x126c <InitFlashDelay+0x26>
    1258:	08 95       	ret
    125a:	83 30       	cpi	r24, 0x03	; 3
    125c:	79 f0       	breq	.+30     	; 0x127c <InitFlashDelay+0x36>
    125e:	85 30       	cpi	r24, 0x05	; 5
    1260:	89 f0       	breq	.+34     	; 0x1284 <InitFlashDelay+0x3e>
    1262:	08 95       	ret
	{
		case _CAM_480:
			LedFlashing(1);
    1264:	81 e0       	ldi	r24, 0x01	; 1
    1266:	0e 94 50 08 	call	0x10a0	; 0x10a0 <LedFlashing>
			break;
    126a:	08 95       	ret
		case _CAM_1020:
			LedFlashing(1);
    126c:	81 e0       	ldi	r24, 0x01	; 1
    126e:	0e 94 50 08 	call	0x10a0	; 0x10a0 <LedFlashing>
			break;
    1272:	08 95       	ret
		case _CAM_3310:
			LedFlashing(6);
    1274:	86 e0       	ldi	r24, 0x06	; 6
    1276:	0e 94 50 08 	call	0x10a0	; 0x10a0 <LedFlashing>
			break;
    127a:	08 95       	ret
		case _CAM_6300:
			LedFlashing(16);
    127c:	80 e1       	ldi	r24, 0x10	; 16
    127e:	0e 94 50 08 	call	0x10a0	; 0x10a0 <LedFlashing>
			break;
    1282:	08 95       	ret
		case _CAM_7500:
			LedFlashing(52);//7500->30s
    1284:	84 e3       	ldi	r24, 0x34	; 52
    1286:	0e 94 50 08 	call	0x10a0	; 0x10a0 <LedFlashing>
    128a:	08 95       	ret

0000128c <InitCamera>:
    128c:	2f ef       	ldi	r18, 0xFF	; 255
    128e:	84 e3       	ldi	r24, 0x34	; 52
    1290:	9c e0       	ldi	r25, 0x0C	; 12
    1292:	21 50       	subi	r18, 0x01	; 1
    1294:	80 40       	sbci	r24, 0x00	; 0
    1296:	90 40       	sbci	r25, 0x00	; 0
    1298:	e1 f7       	brne	.-8      	; 0x1292 <InitCamera+0x6>
    129a:	00 c0       	rjmp	.+0      	; 0x129c <InitCamera+0x10>
    129c:	00 00       	nop
void InitCamera(void)
{
	uint16_t uiModeID=0;

	_delay_ms(500);
	LedFlashing(8);
    129e:	88 e0       	ldi	r24, 0x08	; 8
    12a0:	0e 94 50 08 	call	0x10a0	; 0x10a0 <LedFlashing>
	CAM_InqVersion();
    12a4:	0e 94 a1 05 	call	0xb42	; 0xb42 <CAM_InqVersion>
    12a8:	2f e7       	ldi	r18, 0x7F	; 127
    12aa:	89 ea       	ldi	r24, 0xA9	; 169
    12ac:	93 e0       	ldi	r25, 0x03	; 3
    12ae:	21 50       	subi	r18, 0x01	; 1
    12b0:	80 40       	sbci	r24, 0x00	; 0
    12b2:	90 40       	sbci	r25, 0x00	; 0
    12b4:	e1 f7       	brne	.-8      	; 0x12ae <InitCamera+0x22>
    12b6:	00 c0       	rjmp	.+0      	; 0x12b8 <InitCamera+0x2c>
    12b8:	00 00       	nop
	_delay_ms(150);
	GetInquiryResult(&g_stCameraCmd);
    12ba:	85 e7       	ldi	r24, 0x75	; 117
    12bc:	93 e0       	ldi	r25, 0x03	; 3
    12be:	0e 94 cf 06 	call	0xd9e	; 0xd9e <GetInquiryResult>
	uiModeID = GetCameraVersion();
    12c2:	0e 94 30 06 	call	0xc60	; 0xc60 <GetCameraVersion>
	GetCamType(uiModeID);
    12c6:	0e 94 eb 08 	call	0x11d6	; 0x11d6 <GetCamType>
	InitFlashDelay();
    12ca:	0e 94 23 09 	call	0x1246	; 0x1246 <InitFlashDelay>

	while(1)
	{		
		LedOff();
    12ce:	0e 94 4e 08 	call	0x109c	; 0x109c <LedOff>
		if(g_stStatusCmd.uiModeID != _CAM_7500)
    12d2:	80 91 a5 03 	lds	r24, 0x03A5
    12d6:	85 30       	cpi	r24, 0x05	; 5
    12d8:	89 f0       	breq	.+34     	; 0x12fc <InitCamera+0x70>
		{
			CAM_InqID();
    12da:	0e 94 85 05 	call	0xb0a	; 0xb0a <CAM_InqID>
    12de:	2f e7       	ldi	r18, 0x7F	; 127
    12e0:	88 e3       	ldi	r24, 0x38	; 56
    12e2:	91 e0       	ldi	r25, 0x01	; 1
    12e4:	21 50       	subi	r18, 0x01	; 1
    12e6:	80 40       	sbci	r24, 0x00	; 0
    12e8:	90 40       	sbci	r25, 0x00	; 0
    12ea:	e1 f7       	brne	.-8      	; 0x12e4 <InitCamera+0x58>
    12ec:	00 c0       	rjmp	.+0      	; 0x12ee <InitCamera+0x62>
    12ee:	00 00       	nop
			_delay_ms(_INIT_DELAY * 5);
			GetInquiryResult(&g_stCameraCmd);
    12f0:	85 e7       	ldi	r24, 0x75	; 117
    12f2:	93 e0       	ldi	r25, 0x03	; 3
    12f4:	0e 94 cf 06 	call	0xd9e	; 0xd9e <GetInquiryResult>

			GetCameraId();
    12f8:	0e 94 bd 05 	call	0xb7a	; 0xb7a <GetCameraId>
		}
		
		//if (_CAMARA_ID == g_stStatusCmd.uiCamID)
		{
			CAM_SetTitleClear();
    12fc:	0e 94 85 04 	call	0x90a	; 0x90a <CAM_SetTitleClear>
    1300:	2f e7       	ldi	r18, 0x7F	; 127
    1302:	88 e3       	ldi	r24, 0x38	; 56
    1304:	91 e0       	ldi	r25, 0x01	; 1
    1306:	21 50       	subi	r18, 0x01	; 1
    1308:	80 40       	sbci	r24, 0x00	; 0
    130a:	90 40       	sbci	r25, 0x00	; 0
    130c:	e1 f7       	brne	.-8      	; 0x1306 <InitCamera+0x7a>
    130e:	00 c0       	rjmp	.+0      	; 0x1310 <InitCamera+0x84>
    1310:	00 00       	nop
			_delay_ms(_INIT_DELAY*5);
			CAM_SetTitleOn();
    1312:	0e 94 bf 04 	call	0x97e	; 0x97e <CAM_SetTitleOn>
    1316:	2f e7       	ldi	r18, 0x7F	; 127
    1318:	88 e3       	ldi	r24, 0x38	; 56
    131a:	91 e0       	ldi	r25, 0x01	; 1
    131c:	21 50       	subi	r18, 0x01	; 1
    131e:	80 40       	sbci	r24, 0x00	; 0
    1320:	90 40       	sbci	r25, 0x00	; 0
    1322:	e1 f7       	brne	.-8      	; 0x131c <InitCamera+0x90>
    1324:	00 c0       	rjmp	.+0      	; 0x1326 <InitCamera+0x9a>
    1326:	00 00       	nop
			_delay_ms(_INIT_DELAY*5);
			
			if(g_stStatusCmd.bShowVersion)
    1328:	80 91 c2 03 	lds	r24, 0x03C2
    132c:	88 23       	and	r24, r24
    132e:	31 f1       	breq	.+76     	; 0x137c <InitCamera+0xf0>
			{
				TITLE_DISPLAY titleDis;
				titleDis.uiTitleVPos = 0x01;
				if(g_stStatusCmd.uiModeID == _CAM_480)
    1330:	80 91 a5 03 	lds	r24, 0x03A5
    1334:	81 11       	cpse	r24, r1
    1336:	02 c0       	rjmp	.+4      	; 0x133c <InitCamera+0xb0>
					titleDis.uiTitleHPos = 0x01;
    1338:	71 e0       	ldi	r23, 0x01	; 1
    133a:	01 c0       	rjmp	.+2      	; 0x133e <InitCamera+0xb2>
				else
					titleDis.uiTitleHPos = 0x05;
    133c:	75 e0       	ldi	r23, 0x05	; 5

				titleDis.TitleColor = _TITLE_COLOR_VIOLET;
				titleDis.TitleBlink = _TITLE_BLINK_OFF;
				CAM_SetTitleSet1(titleDis);
    133e:	61 e0       	ldi	r22, 0x01	; 1
    1340:	82 e0       	ldi	r24, 0x02	; 2
    1342:	90 e0       	ldi	r25, 0x00	; 0
    1344:	0e 94 96 03 	call	0x72c	; 0x72c <CAM_SetTitleSet1>
    1348:	2f e7       	ldi	r18, 0x7F	; 127
    134a:	88 e3       	ldi	r24, 0x38	; 56
    134c:	91 e0       	ldi	r25, 0x01	; 1
    134e:	21 50       	subi	r18, 0x01	; 1
    1350:	80 40       	sbci	r24, 0x00	; 0
    1352:	90 40       	sbci	r25, 0x00	; 0
    1354:	e1 f7       	brne	.-8      	; 0x134e <InitCamera+0xc2>
    1356:	00 c0       	rjmp	.+0      	; 0x1358 <InitCamera+0xcc>
    1358:	00 00       	nop
				_delay_ms(_INIT_DELAY*5);
				
				ShowProductInfo(titleDis.uiTitleVPos);
    135a:	81 e0       	ldi	r24, 0x01	; 1
    135c:	0e 94 ab 16 	call	0x2d56	; 0x2d56 <ShowProductInfo>
				
				LedFlashing(10);
    1360:	8a e0       	ldi	r24, 0x0A	; 10
    1362:	0e 94 50 08 	call	0x10a0	; 0x10a0 <LedFlashing>
				
				CAM_SetTitleClear();
    1366:	0e 94 85 04 	call	0x90a	; 0x90a <CAM_SetTitleClear>
    136a:	2f e7       	ldi	r18, 0x7F	; 127
    136c:	88 e3       	ldi	r24, 0x38	; 56
    136e:	91 e0       	ldi	r25, 0x01	; 1
    1370:	21 50       	subi	r18, 0x01	; 1
    1372:	80 40       	sbci	r24, 0x00	; 0
    1374:	90 40       	sbci	r25, 0x00	; 0
    1376:	e1 f7       	brne	.-8      	; 0x1370 <InitCamera+0xe4>
    1378:	00 c0       	rjmp	.+0      	; 0x137a <InitCamera+0xee>
    137a:	00 00       	nop
				_delay_ms(_INIT_DELAY*5);
			}

			if(g_stStatusCmd.uiModeID == _CAM_480)
    137c:	80 91 a5 03 	lds	r24, 0x03A5
    1380:	81 11       	cpse	r24, r1
    1382:	04 c0       	rjmp	.+8      	; 0x138c <InitCamera+0x100>
				g_stStatusCmd.titleDis.uiTitleHPos = 0x01;
    1384:	81 e0       	ldi	r24, 0x01	; 1
    1386:	80 93 b1 03 	sts	0x03B1, r24
    138a:	09 c0       	rjmp	.+18     	; 0x139e <InitCamera+0x112>
			else
				g_stStatusCmd.titleDis.uiTitleHPos = 0x05;
    138c:	95 e0       	ldi	r25, 0x05	; 5
    138e:	90 93 b1 03 	sts	0x03B1, r25

			if(g_stStatusCmd.uiModeID == _CAM_7500)
    1392:	85 30       	cpi	r24, 0x05	; 5
    1394:	21 f4       	brne	.+8      	; 0x139e <InitCamera+0x112>
				g_stStatusCmd.titleDis.uiTitleVPos = 0x0e;
    1396:	8e e0       	ldi	r24, 0x0E	; 14
    1398:	80 93 b0 03 	sts	0x03B0, r24
    139c:	03 c0       	rjmp	.+6      	; 0x13a4 <InitCamera+0x118>
			else
				g_stStatusCmd.titleDis.uiTitleVPos = 0x0a;
    139e:	8a e0       	ldi	r24, 0x0A	; 10
    13a0:	80 93 b0 03 	sts	0x03B0, r24


			CAM_SetTitleSet1(g_stStatusCmd.titleDis);
    13a4:	60 91 b0 03 	lds	r22, 0x03B0
    13a8:	70 91 b1 03 	lds	r23, 0x03B1
    13ac:	80 91 b2 03 	lds	r24, 0x03B2
    13b0:	90 91 b3 03 	lds	r25, 0x03B3
    13b4:	0e 94 96 03 	call	0x72c	; 0x72c <CAM_SetTitleSet1>
    13b8:	2f e7       	ldi	r18, 0x7F	; 127
    13ba:	88 e3       	ldi	r24, 0x38	; 56
    13bc:	91 e0       	ldi	r25, 0x01	; 1
    13be:	21 50       	subi	r18, 0x01	; 1
    13c0:	80 40       	sbci	r24, 0x00	; 0
    13c2:	90 40       	sbci	r25, 0x00	; 0
    13c4:	e1 f7       	brne	.-8      	; 0x13be <InitCamera+0x132>
    13c6:	00 c0       	rjmp	.+0      	; 0x13c8 <InitCamera+0x13c>
    13c8:	00 00       	nop

			_delay_ms(_INIT_DELAY*5);

			CAM_SetTitleOn();
    13ca:	0e 94 bf 04 	call	0x97e	; 0x97e <CAM_SetTitleOn>
    13ce:	2f e7       	ldi	r18, 0x7F	; 127
    13d0:	88 e3       	ldi	r24, 0x38	; 56
    13d2:	91 e0       	ldi	r25, 0x01	; 1
    13d4:	21 50       	subi	r18, 0x01	; 1
    13d6:	80 40       	sbci	r24, 0x00	; 0
    13d8:	90 40       	sbci	r25, 0x00	; 0
    13da:	e1 f7       	brne	.-8      	; 0x13d4 <InitCamera+0x148>
    13dc:	00 c0       	rjmp	.+0      	; 0x13de <InitCamera+0x152>
    13de:	00 00       	nop
			_delay_ms(_INIT_DELAY*5);
			LedOn();
    13e0:	0e 94 4c 08 	call	0x1098	; 0x1098 <LedOn>
			

			CAM_SetWBMaunal(); //R,B
    13e4:	0e 94 f1 01 	call	0x3e2	; 0x3e2 <CAM_SetWBMaunal>
    13e8:	2f e7       	ldi	r18, 0x7F	; 127
    13ea:	88 e3       	ldi	r24, 0x38	; 56
    13ec:	91 e0       	ldi	r25, 0x01	; 1
    13ee:	21 50       	subi	r18, 0x01	; 1
    13f0:	80 40       	sbci	r24, 0x00	; 0
    13f2:	90 40       	sbci	r25, 0x00	; 0
    13f4:	e1 f7       	brne	.-8      	; 0x13ee <InitCamera+0x162>
    13f6:	00 c0       	rjmp	.+0      	; 0x13f8 <InitCamera+0x16c>
    13f8:	00 00       	nop

			_delay_ms(_INIT_DELAY*5);
			//Inq R Gain
			CAM_InqRGain();
    13fa:	0e 94 4d 05 	call	0xa9a	; 0xa9a <CAM_InqRGain>
    13fe:	2f e7       	ldi	r18, 0x7F	; 127
    1400:	88 e3       	ldi	r24, 0x38	; 56
    1402:	91 e0       	ldi	r25, 0x01	; 1
    1404:	21 50       	subi	r18, 0x01	; 1
    1406:	80 40       	sbci	r24, 0x00	; 0
    1408:	90 40       	sbci	r25, 0x00	; 0
    140a:	e1 f7       	brne	.-8      	; 0x1404 <InitCamera+0x178>
    140c:	00 c0       	rjmp	.+0      	; 0x140e <InitCamera+0x182>
    140e:	00 00       	nop
			_delay_ms(_INIT_DELAY*5);
			GetInquiryResult(&g_stCameraCmd);
    1410:	85 e7       	ldi	r24, 0x75	; 117
    1412:	93 e0       	ldi	r25, 0x03	; 3
    1414:	0e 94 cf 06 	call	0xd9e	; 0xd9e <GetInquiryResult>
			g_stStatusCmd.uiRGain = GetRGain();
    1418:	0e 94 3a 06 	call	0xc74	; 0xc74 <GetRGain>
    141c:	80 93 a8 03 	sts	0x03A8, r24
			g_stStatusCmd.uiRGainCurrent = g_stStatusCmd.uiRGain;
    1420:	80 93 a9 03 	sts	0x03A9, r24
			
			
			
			//Inq B Gain
			CAM_InqBGain();
    1424:	0e 94 69 05 	call	0xad2	; 0xad2 <CAM_InqBGain>
    1428:	2f e7       	ldi	r18, 0x7F	; 127
    142a:	88 e3       	ldi	r24, 0x38	; 56
    142c:	91 e0       	ldi	r25, 0x01	; 1
    142e:	21 50       	subi	r18, 0x01	; 1
    1430:	80 40       	sbci	r24, 0x00	; 0
    1432:	90 40       	sbci	r25, 0x00	; 0
    1434:	e1 f7       	brne	.-8      	; 0x142e <InitCamera+0x1a2>
    1436:	00 c0       	rjmp	.+0      	; 0x1438 <InitCamera+0x1ac>
    1438:	00 00       	nop
			_delay_ms(_INIT_DELAY*5);
			GetInquiryResult(&g_stCameraCmd);
    143a:	85 e7       	ldi	r24, 0x75	; 117
    143c:	93 e0       	ldi	r25, 0x03	; 3
    143e:	0e 94 cf 06 	call	0xd9e	; 0xd9e <GetInquiryResult>
			g_stStatusCmd.uiBGain = GetBGain();
    1442:	0e 94 4a 06 	call	0xc94	; 0xc94 <GetBGain>
    1446:	80 93 aa 03 	sts	0x03AA, r24
			g_stStatusCmd.uiBGainCurrent = g_stStatusCmd.uiBGain;
    144a:	80 93 ab 03 	sts	0x03AB, r24
    144e:	8f e3       	ldi	r24, 0x3F	; 63
    1450:	9c e9       	ldi	r25, 0x9C	; 156
    1452:	01 97       	sbiw	r24, 0x01	; 1
    1454:	f1 f7       	brne	.-4      	; 0x1452 <InitCamera+0x1c6>
    1456:	00 c0       	rjmp	.+0      	; 0x1458 <InitCamera+0x1cc>
    1458:	00 00       	nop



			
			//set auto focus
			CAM_SetAutoFocus();
    145a:	0e 94 7b 01 	call	0x2f6	; 0x2f6 <CAM_SetAutoFocus>
    145e:	9f e7       	ldi	r25, 0x7F	; 127
    1460:	28 e3       	ldi	r18, 0x38	; 56
    1462:	81 e0       	ldi	r24, 0x01	; 1
    1464:	91 50       	subi	r25, 0x01	; 1
    1466:	20 40       	sbci	r18, 0x00	; 0
    1468:	80 40       	sbci	r24, 0x00	; 0
    146a:	e1 f7       	brne	.-8      	; 0x1464 <InitCamera+0x1d8>
    146c:	00 c0       	rjmp	.+0      	; 0x146e <InitCamera+0x1e2>
    146e:	00 00       	nop
			
			_delay_ms(_INIT_DELAY*5);
			LedOff();
    1470:	0e 94 4e 08 	call	0x109c	; 0x109c <LedOff>
			#if(_CCD_TYPE_CODE == _CCD_7500)
				CAM_SetDZoomLimit();
			#else
				CAM_SetDZoomOn();
    1474:	0e 94 0b 01 	call	0x216	; 0x216 <CAM_SetDZoomOn>
				CAM_SetNormalAF();
    1478:	0e 94 b9 01 	call	0x372	; 0x372 <CAM_SetNormalAF>
    147c:	9f e7       	ldi	r25, 0x7F	; 127
    147e:	28 e3       	ldi	r18, 0x38	; 56
    1480:	81 e0       	ldi	r24, 0x01	; 1
    1482:	91 50       	subi	r25, 0x01	; 1
    1484:	20 40       	sbci	r18, 0x00	; 0
    1486:	80 40       	sbci	r24, 0x00	; 0
    1488:	e1 f7       	brne	.-8      	; 0x1482 <InitCamera+0x1f6>
    148a:	00 c0       	rjmp	.+0      	; 0x148c <InitCamera+0x200>
    148c:	00 00       	nop



			
			_delay_ms(_INIT_DELAY*5);
			CAM_SetSAVEAVOn();
    148e:	0e 94 f9 04 	call	0x9f2	; 0x9f2 <CAM_SetSAVEAVOn>
    1492:	9f e7       	ldi	r25, 0x7F	; 127
    1494:	28 e3       	ldi	r18, 0x38	; 56
    1496:	81 e0       	ldi	r24, 0x01	; 1
    1498:	91 50       	subi	r25, 0x01	; 1
    149a:	20 40       	sbci	r18, 0x00	; 0
    149c:	80 40       	sbci	r24, 0x00	; 0
    149e:	e1 f7       	brne	.-8      	; 0x1498 <InitCamera+0x20c>
    14a0:	00 c0       	rjmp	.+0      	; 0x14a2 <InitCamera+0x216>
    14a2:	00 00       	nop
			_delay_ms(_INIT_DELAY*5);
			
			CAM_SetZoomDirect();	
    14a4:	0e 94 bb 00 	call	0x176	; 0x176 <CAM_SetZoomDirect>
			LedFlashing(2);
    14a8:	82 e0       	ldi	r24, 0x02	; 2
    14aa:	0e 94 50 08 	call	0x10a0	; 0x10a0 <LedFlashing>
    14ae:	08 95       	ret

000014b0 <GetXRateByPos>:
uint8_t GetXRateByPos(void)
{
	uint8_t uiXRate = 0;
	for (uiXRate=0; uiXRate<_MAX_RATE;uiXRate++)
	{
		if (g_stStatusCmd.uiZoomPos <= uiZoomRatioTable[g_stStatusCmd.uiModeID%_MAX_ZOOM_PARA_NUM][uiXRate])
    14b0:	40 91 b6 03 	lds	r20, 0x03B6
    14b4:	50 91 b7 03 	lds	r21, 0x03B7
    14b8:	80 91 a5 03 	lds	r24, 0x03A5
    14bc:	68 2f       	mov	r22, r24
    14be:	61 70       	andi	r22, 0x01	; 1
    14c0:	70 e0       	ldi	r23, 0x00	; 0
    14c2:	88 e6       	ldi	r24, 0x68	; 104
    14c4:	86 9f       	mul	r24, r22
    14c6:	f0 01       	movw	r30, r0
    14c8:	87 9f       	mul	r24, r23
    14ca:	f0 0d       	add	r31, r0
    14cc:	11 24       	eor	r1, r1
    14ce:	eb 58       	subi	r30, 0x8B	; 139
    14d0:	fd 4f       	sbci	r31, 0xFD	; 253
    14d2:	80 81       	ld	r24, Z
    14d4:	91 81       	ldd	r25, Z+1	; 0x01
    14d6:	84 17       	cp	r24, r20
    14d8:	95 07       	cpc	r25, r21
    14da:	38 f5       	brcc	.+78     	; 0x152a <GetXRateByPos+0x7a>
    14dc:	88 e6       	ldi	r24, 0x68	; 104
    14de:	86 9f       	mul	r24, r22
    14e0:	f0 01       	movw	r30, r0
    14e2:	87 9f       	mul	r24, r23
    14e4:	f0 0d       	add	r31, r0
    14e6:	11 24       	eor	r1, r1
    14e8:	e9 58       	subi	r30, 0x89	; 137
    14ea:	fd 4f       	sbci	r31, 0xFD	; 253
}

uint8_t GetXRateByPos(void)
{
	uint8_t uiXRate = 0;
	for (uiXRate=0; uiXRate<_MAX_RATE;uiXRate++)
    14ec:	81 e0       	ldi	r24, 0x01	; 1
	{
		if (g_stStatusCmd.uiZoomPos <= uiZoomRatioTable[g_stStatusCmd.uiModeID%_MAX_ZOOM_PARA_NUM][uiXRate])
    14ee:	21 91       	ld	r18, Z+
    14f0:	31 91       	ld	r19, Z+
    14f2:	24 17       	cp	r18, r20
    14f4:	35 07       	cpc	r19, r21
    14f6:	20 f4       	brcc	.+8      	; 0x1500 <GetXRateByPos+0x50>
}

uint8_t GetXRateByPos(void)
{
	uint8_t uiXRate = 0;
	for (uiXRate=0; uiXRate<_MAX_RATE;uiXRate++)
    14f8:	8f 5f       	subi	r24, 0xFF	; 255
    14fa:	84 33       	cpi	r24, 0x34	; 52
    14fc:	c1 f7       	brne	.-16     	; 0x14ee <GetXRateByPos+0x3e>
    14fe:	17 c0       	rjmp	.+46     	; 0x152e <GetXRateByPos+0x7e>
		if (g_stStatusCmd.uiZoomPos <= uiZoomRatioTable[g_stStatusCmd.uiModeID%_MAX_ZOOM_PARA_NUM][uiXRate])
		{
			break;
		}
	}
	if(g_stStatusCmd.uiZoomPos == uiZoomRatioTable[g_stStatusCmd.uiModeID%_MAX_ZOOM_PARA_NUM][uiXRate])
    1500:	94 e3       	ldi	r25, 0x34	; 52
    1502:	96 9f       	mul	r25, r22
    1504:	f0 01       	movw	r30, r0
    1506:	97 9f       	mul	r25, r23
    1508:	f0 0d       	add	r31, r0
    150a:	11 24       	eor	r1, r1
    150c:	e8 0f       	add	r30, r24
    150e:	f1 1d       	adc	r31, r1
    1510:	ee 0f       	add	r30, r30
    1512:	ff 1f       	adc	r31, r31
    1514:	eb 58       	subi	r30, 0x8B	; 139
    1516:	fd 4f       	sbci	r31, 0xFD	; 253
    1518:	20 81       	ld	r18, Z
    151a:	31 81       	ldd	r19, Z+1	; 0x01
    151c:	24 17       	cp	r18, r20
    151e:	35 07       	cpc	r19, r21
    1520:	b9 f0       	breq	.+46     	; 0x1550 <GetXRateByPos+0xa0>
		return uiXRate;
	else
		return (uiXRate > 0)?uiXRate-1:uiXRate;
    1522:	88 23       	and	r24, r24
    1524:	a9 f0       	breq	.+42     	; 0x1550 <GetXRateByPos+0xa0>
    1526:	81 50       	subi	r24, 0x01	; 1
    1528:	08 95       	ret
}

uint8_t GetXRateByPos(void)
{
	uint8_t uiXRate = 0;
	for (uiXRate=0; uiXRate<_MAX_RATE;uiXRate++)
    152a:	80 e0       	ldi	r24, 0x00	; 0
    152c:	08 95       	ret
		if (g_stStatusCmd.uiZoomPos <= uiZoomRatioTable[g_stStatusCmd.uiModeID%_MAX_ZOOM_PARA_NUM][uiXRate])
		{
			break;
		}
	}
	if(g_stStatusCmd.uiZoomPos == uiZoomRatioTable[g_stStatusCmd.uiModeID%_MAX_ZOOM_PARA_NUM][uiXRate])
    152e:	94 e3       	ldi	r25, 0x34	; 52
    1530:	96 9f       	mul	r25, r22
    1532:	f0 01       	movw	r30, r0
    1534:	97 9f       	mul	r25, r23
    1536:	f0 0d       	add	r31, r0
    1538:	11 24       	eor	r1, r1
    153a:	e8 0f       	add	r30, r24
    153c:	f1 1d       	adc	r31, r1
    153e:	ee 0f       	add	r30, r30
    1540:	ff 1f       	adc	r31, r31
    1542:	eb 58       	subi	r30, 0x8B	; 139
    1544:	fd 4f       	sbci	r31, 0xFD	; 253
    1546:	20 81       	ld	r18, Z
    1548:	31 81       	ldd	r19, Z+1	; 0x01
    154a:	24 17       	cp	r18, r20
    154c:	35 07       	cpc	r19, r21
    154e:	59 f7       	brne	.-42     	; 0x1526 <GetXRateByPos+0x76>
		return uiXRate;
	else
		return (uiXRate > 0)?uiXRate-1:uiXRate;
}
    1550:	08 95       	ret

00001552 <ProcessAF>:

void ProcessAF(void)
{
	switch(g_stStatusCmd.FocusMode)
    1552:	80 91 b5 03 	lds	r24, 0x03B5
    1556:	88 23       	and	r24, r24
    1558:	21 f0       	breq	.+8      	; 0x1562 <ProcessAF+0x10>
    155a:	81 30       	cpi	r24, 0x01	; 1
    155c:	09 f4       	brne	.+2      	; 0x1560 <ProcessAF+0xe>
    155e:	53 c0       	rjmp	.+166    	; 0x1606 <ProcessAF+0xb4>
    1560:	7b c0       	rjmp	.+246    	; 0x1658 <ProcessAF+0x106>
	{
		case _FOCUS_MODE_AUTO:
		{
			CAM_SetManualFocus();
    1562:	0e 94 99 01 	call	0x332	; 0x332 <CAM_SetManualFocus>
			g_stStatusCmd.FocusMode = _FOCUS_MODE_MANUAL;
    1566:	81 e0       	ldi	r24, 0x01	; 1
    1568:	80 93 b5 03 	sts	0x03B5, r24
			//g_stStatusCmd.bIsDisplay = true;
			if((g_stStatusCmd.FlipMode == _FLIP_MODE_NORMAL)||(g_stStatusCmd.FlipMode == _FLIP_MODE_OFF)||(g_stStatusCmd.FlipMode == _MIRROR_MODE_OFF))
    156c:	80 91 c6 03 	lds	r24, 0x03C6
    1570:	98 2f       	mov	r25, r24
    1572:	9d 7f       	andi	r25, 0xFD	; 253
    1574:	11 f0       	breq	.+4      	; 0x157a <ProcessAF+0x28>
    1576:	84 30       	cpi	r24, 0x04	; 4
    1578:	29 f4       	brne	.+10     	; 0x1584 <ProcessAF+0x32>
				g_stStatusCmd.uiDisplayFlag |= _DISPLAY_FOCUS;
    157a:	ef eb       	ldi	r30, 0xBF	; 191
    157c:	f3 e0       	ldi	r31, 0x03	; 3
    157e:	80 81       	ld	r24, Z
    1580:	80 62       	ori	r24, 0x20	; 32
    1582:	80 83       	st	Z, r24
    1584:	2f e7       	ldi	r18, 0x7F	; 127
    1586:	88 e3       	ldi	r24, 0x38	; 56
    1588:	91 e0       	ldi	r25, 0x01	; 1
    158a:	21 50       	subi	r18, 0x01	; 1
    158c:	80 40       	sbci	r24, 0x00	; 0
    158e:	90 40       	sbci	r25, 0x00	; 0
    1590:	e1 f7       	brne	.-8      	; 0x158a <ProcessAF+0x38>
    1592:	00 c0       	rjmp	.+0      	; 0x1594 <ProcessAF+0x42>
    1594:	00 00       	nop
			#if(_EM_KEY == 0)
			g_stStatusCmd.uiDisplayFlag |= _DISPLAY_ZOOM;
			g_stStatusCmd.bIsDisplay = true;
			#endif
			_delay_ms(50);
			CAM_InqFocusPos();
    1596:	0e 94 31 05 	call	0xa62	; 0xa62 <CAM_InqFocusPos>
    159a:	2f e7       	ldi	r18, 0x7F	; 127
    159c:	88 e3       	ldi	r24, 0x38	; 56
    159e:	91 e0       	ldi	r25, 0x01	; 1
    15a0:	21 50       	subi	r18, 0x01	; 1
    15a2:	80 40       	sbci	r24, 0x00	; 0
    15a4:	90 40       	sbci	r25, 0x00	; 0
    15a6:	e1 f7       	brne	.-8      	; 0x15a0 <ProcessAF+0x4e>
    15a8:	00 c0       	rjmp	.+0      	; 0x15aa <ProcessAF+0x58>
    15aa:	00 00       	nop
			_delay_ms(50);
			GetInquiryResult(&g_stCameraCmd);
    15ac:	85 e7       	ldi	r24, 0x75	; 117
    15ae:	93 e0       	ldi	r25, 0x03	; 3
    15b0:	0e 94 cf 06 	call	0xd9e	; 0xd9e <GetInquiryResult>
			g_stStatusCmd.uiFocusPos = GetFocusPos();
    15b4:	0e 94 0b 06 	call	0xc16	; 0xc16 <GetFocusPos>
    15b8:	e8 eb       	ldi	r30, 0xB8	; 184
    15ba:	f3 e0       	ldi	r31, 0x03	; 3
    15bc:	80 83       	st	Z, r24
    15be:	91 83       	std	Z+1, r25	; 0x01

uint8_t GetMfRateByPos(void)
{
	uint8_t uiMF = 0;

	uiMF =g_stStatusCmd.uiFocusPos/_FOCUS_POS_MIN; //(g_stStatusCmd.uiFocusPos -_FOCUS_POS_MIN) /((uiFocusLimitTable[g_stStatusCmd.uiXRate] -_FOCUS_POS_MIN) /7) + 1;
    15c0:	92 95       	swap	r25
    15c2:	9f 70       	andi	r25, 0x0F	; 15
    15c4:	90 93 ae 03 	sts	0x03AE, r25
			g_stStatusCmd.uiMF = GetMfRateByPos();
			#ifdef _DEBUG_PRINTF
			//MyPrintf("Manual focus!");
			#endif
			#if(_EM_KEY == 1)
			g_stStatusCmd.titleDis.uiTitleVPos = 0x01;
    15c8:	e0 eb       	ldi	r30, 0xB0	; 176
    15ca:	f3 e0       	ldi	r31, 0x03	; 3
    15cc:	81 e0       	ldi	r24, 0x01	; 1
    15ce:	80 83       	st	Z, r24
			g_stStatusCmd.titleDis.uiTitleHPos = 0x01;
    15d0:	80 93 b1 03 	sts	0x03B1, r24
			g_stStatusCmd.titleDis.TitleColor = _TITLE_COLOR_VIOLET;
    15d4:	92 e0       	ldi	r25, 0x02	; 2
    15d6:	90 93 b2 03 	sts	0x03B2, r25
			g_stStatusCmd.titleDis.TitleBlink = _TITLE_BLINK_ON;
    15da:	80 93 b3 03 	sts	0x03B3, r24
			CAM_SetTitleSet1(g_stStatusCmd.titleDis);
    15de:	60 81       	ld	r22, Z
    15e0:	71 81       	ldd	r23, Z+1	; 0x01
    15e2:	82 81       	ldd	r24, Z+2	; 0x02
    15e4:	93 81       	ldd	r25, Z+3	; 0x03
    15e6:	0e 94 96 03 	call	0x72c	; 0x72c <CAM_SetTitleSet1>
			if(g_stStatusCmd.uiModeID == _CAM_7500)
    15ea:	80 91 a5 03 	lds	r24, 0x03A5
    15ee:	85 30       	cpi	r24, 0x05	; 5
    15f0:	99 f5       	brne	.+102    	; 0x1658 <ProcessAF+0x106>
    15f2:	2f ef       	ldi	r18, 0xFF	; 255
    15f4:	80 e7       	ldi	r24, 0x70	; 112
    15f6:	92 e0       	ldi	r25, 0x02	; 2
    15f8:	21 50       	subi	r18, 0x01	; 1
    15fa:	80 40       	sbci	r24, 0x00	; 0
    15fc:	90 40       	sbci	r25, 0x00	; 0
    15fe:	e1 f7       	brne	.-8      	; 0x15f8 <ProcessAF+0xa6>
    1600:	00 c0       	rjmp	.+0      	; 0x1602 <ProcessAF+0xb0>
    1602:	00 00       	nop
    1604:	29 c0       	rjmp	.+82     	; 0x1658 <ProcessAF+0x106>
	
		}
		break;
		case _FOCUS_MODE_MANUAL:
		{
			CAM_SetAutoFocus();
    1606:	0e 94 7b 01 	call	0x2f6	; 0x2f6 <CAM_SetAutoFocus>
			g_stStatusCmd.FocusMode = _FOCUS_MODE_AUTO;
    160a:	10 92 b5 03 	sts	0x03B5, r1
			#if(_EM_KEY == 0)
			g_stStatusCmd.uiDisplayFlag |= _DISPLAY_ZOOM;
			g_stStatusCmd.bIsDisplay = true;
			#endif
			g_stStatusCmd.uiDisplayFlag &= ~_DISPLAY_FOCUS;
			g_stStatusCmd.uiDisplayFlag &= ~_DISPLAY_FOCUS_END;
    160e:	ef eb       	ldi	r30, 0xBF	; 191
    1610:	f3 e0       	ldi	r31, 0x03	; 3
    1612:	80 81       	ld	r24, Z
    1614:	8f 79       	andi	r24, 0x9F	; 159
    1616:	80 83       	st	Z, r24
			g_bTitle2Change = true;
    1618:	81 e0       	ldi	r24, 0x01	; 1
    161a:	80 93 71 03 	sts	0x0371, r24
			#ifdef _DEBUG_PRINTF
			//MyPrintf("Auto focus!");
			#endif
#if(_EM_KEY == 1)
			g_stStatusCmd.titleDis.uiTitleVPos = 0x0a;
    161e:	e0 eb       	ldi	r30, 0xB0	; 176
    1620:	f3 e0       	ldi	r31, 0x03	; 3
    1622:	9a e0       	ldi	r25, 0x0A	; 10
    1624:	90 83       	st	Z, r25
			g_stStatusCmd.titleDis.uiTitleHPos = 0x01;
    1626:	80 93 b1 03 	sts	0x03B1, r24
			g_stStatusCmd.titleDis.TitleColor = _TITLE_COLOR_YELLOW;
    162a:	80 93 b2 03 	sts	0x03B2, r24
			g_stStatusCmd.titleDis.TitleBlink = _TITLE_BLINK_OFF;
    162e:	10 92 b3 03 	sts	0x03B3, r1
			CAM_SetTitleSet1(g_stStatusCmd.titleDis);
    1632:	60 81       	ld	r22, Z
    1634:	71 81       	ldd	r23, Z+1	; 0x01
    1636:	82 81       	ldd	r24, Z+2	; 0x02
    1638:	93 81       	ldd	r25, Z+3	; 0x03
    163a:	0e 94 96 03 	call	0x72c	; 0x72c <CAM_SetTitleSet1>
			if(g_stStatusCmd.uiModeID == _CAM_7500)
    163e:	80 91 a5 03 	lds	r24, 0x03A5
    1642:	85 30       	cpi	r24, 0x05	; 5
    1644:	49 f4       	brne	.+18     	; 0x1658 <ProcessAF+0x106>
    1646:	2f ef       	ldi	r18, 0xFF	; 255
    1648:	80 e7       	ldi	r24, 0x70	; 112
    164a:	92 e0       	ldi	r25, 0x02	; 2
    164c:	21 50       	subi	r18, 0x01	; 1
    164e:	80 40       	sbci	r24, 0x00	; 0
    1650:	90 40       	sbci	r25, 0x00	; 0
    1652:	e1 f7       	brne	.-8      	; 0x164c <ProcessAF+0xfa>
    1654:	00 c0       	rjmp	.+0      	; 0x1656 <ProcessAF+0x104>
    1656:	00 00       	nop
		default:
		//error
		break;
	}
	
	g_bTitle1Change = true;
    1658:	81 e0       	ldi	r24, 0x01	; 1
    165a:	80 93 72 03 	sts	0x0372, r24
    165e:	08 95       	ret

00001660 <ProcessDisplay>:
	return;
}

void ProcessDisplay(void)
{
	if (true == g_stStatusCmd.bIsDisplay)
    1660:	80 91 be 03 	lds	r24, 0x03BE
    1664:	88 23       	and	r24, r24
    1666:	69 f0       	breq	.+26     	; 0x1682 <ProcessDisplay+0x22>
	{
		g_stStatusCmd.bIsDisplay = false;
    1668:	10 92 be 03 	sts	0x03BE, r1
		g_stStatusCmd.uiDisplayFlag &= ~_DISPLAY_ZOOM;
		g_stStatusCmd.uiDisplayFlag &= ~_DISPLAY_FILTER;
		g_stStatusCmd.uiDisplayFlag &= ~_DISPLAY_WHITE;
    166c:	ef eb       	ldi	r30, 0xBF	; 191
    166e:	f3 e0       	ldi	r31, 0x03	; 3
    1670:	80 81       	ld	r24, Z
    1672:	88 7f       	andi	r24, 0xF8	; 248
    1674:	80 83       	st	Z, r24
		#if(_EM_KEY == 1)
		g_stStatusCmd.bIsTime = false;
    1676:	10 92 c0 03 	sts	0x03C0, r1
		g_bTitle2Change = true;
    167a:	81 e0       	ldi	r24, 0x01	; 1
    167c:	80 93 71 03 	sts	0x0371, r24
    1680:	29 c0       	rjmp	.+82     	; 0x16d4 <ProcessDisplay+0x74>
		#endif	
	}
	else
	{
		g_stStatusCmd.bIsDisplay = true;
    1682:	81 e0       	ldi	r24, 0x01	; 1
    1684:	80 93 be 03 	sts	0x03BE, r24
		g_stStatusCmd.uiDisplayFlag |= _DISPLAY_ZOOM;
		g_stStatusCmd.uiDisplayFlag |= _DISPLAY_FILTER;
		g_stStatusCmd.uiDisplayFlag |= _DISPLAY_WHITE;
    1688:	ef eb       	ldi	r30, 0xBF	; 191
    168a:	f3 e0       	ldi	r31, 0x03	; 3
    168c:	90 81       	ld	r25, Z
    168e:	97 60       	ori	r25, 0x07	; 7
    1690:	90 83       	st	Z, r25
		#if(_EM_KEY == 1)
		g_stStatusCmd.bIsTime = true;
    1692:	80 93 c0 03 	sts	0x03C0, r24
		g_bTitle2Change = true;
    1696:	80 93 71 03 	sts	0x0371, r24

		g_stStatusCmd.titleDis.uiTitleVPos = 0x0a;
    169a:	e0 eb       	ldi	r30, 0xB0	; 176
    169c:	f3 e0       	ldi	r31, 0x03	; 3
    169e:	9a e0       	ldi	r25, 0x0A	; 10
    16a0:	90 83       	st	Z, r25
		g_stStatusCmd.titleDis.uiTitleHPos = 0x01;
    16a2:	80 93 b1 03 	sts	0x03B1, r24
		g_stStatusCmd.titleDis.TitleColor = _TITLE_COLOR_YELLOW;
    16a6:	80 93 b2 03 	sts	0x03B2, r24
		g_stStatusCmd.titleDis.TitleBlink = _TITLE_BLINK_OFF;
    16aa:	10 92 b3 03 	sts	0x03B3, r1
		CAM_SetTitleSet1(g_stStatusCmd.titleDis);
    16ae:	60 81       	ld	r22, Z
    16b0:	71 81       	ldd	r23, Z+1	; 0x01
    16b2:	82 81       	ldd	r24, Z+2	; 0x02
    16b4:	93 81       	ldd	r25, Z+3	; 0x03
    16b6:	0e 94 96 03 	call	0x72c	; 0x72c <CAM_SetTitleSet1>
		if(g_stStatusCmd.uiModeID == _CAM_7500)
    16ba:	80 91 a5 03 	lds	r24, 0x03A5
    16be:	85 30       	cpi	r24, 0x05	; 5
    16c0:	49 f4       	brne	.+18     	; 0x16d4 <ProcessDisplay+0x74>
    16c2:	2f ef       	ldi	r18, 0xFF	; 255
    16c4:	80 e7       	ldi	r24, 0x70	; 112
    16c6:	92 e0       	ldi	r25, 0x02	; 2
    16c8:	21 50       	subi	r18, 0x01	; 1
    16ca:	80 40       	sbci	r24, 0x00	; 0
    16cc:	90 40       	sbci	r25, 0x00	; 0
    16ce:	e1 f7       	brne	.-8      	; 0x16c8 <ProcessDisplay+0x68>
    16d0:	00 c0       	rjmp	.+0      	; 0x16d2 <ProcessDisplay+0x72>
    16d2:	00 00       	nop
			_delay_ms(100);
		
		#endif	
	}
	
	g_bTitle1Change = true;
    16d4:	81 e0       	ldi	r24, 0x01	; 1
    16d6:	80 93 72 03 	sts	0x0372, r24
	if (_WHITE_MODE_NORMAL != g_stStatusCmd.WhiteMode || _GREEN_MODE_NORMAL != g_stStatusCmd.GreenMode )
    16da:	80 91 c3 03 	lds	r24, 0x03C3
    16de:	81 11       	cpse	r24, r1
    16e0:	04 c0       	rjmp	.+8      	; 0x16ea <ProcessDisplay+0x8a>
    16e2:	80 91 c4 03 	lds	r24, 0x03C4
    16e6:	88 23       	and	r24, r24
    16e8:	19 f0       	breq	.+6      	; 0x16f0 <ProcessDisplay+0x90>
	g_bTitle2Change = true;
    16ea:	81 e0       	ldi	r24, 0x01	; 1
    16ec:	80 93 71 03 	sts	0x0371, r24
    16f0:	08 95       	ret

000016f2 <ProcessWide>:
	
	return;
}

void ProcessWide(void) //zoom out / Far
{
    16f2:	0f 93       	push	r16
    16f4:	1f 93       	push	r17
    16f6:	cf 93       	push	r28
    16f8:	df 93       	push	r29
	if(g_stStatusCmd.WBMode == _WB_MODE_NORMAL)
    16fa:	80 91 c7 03 	lds	r24, 0x03C7
    16fe:	81 11       	cpse	r24, r1
    1700:	5c c0       	rjmp	.+184    	; 0x17ba <ProcessWide+0xc8>
	{
		switch(g_stStatusCmd.FocusMode)
    1702:	80 91 b5 03 	lds	r24, 0x03B5
    1706:	88 23       	and	r24, r24
    1708:	21 f0       	breq	.+8      	; 0x1712 <ProcessWide+0x20>
    170a:	81 30       	cpi	r24, 0x01	; 1
    170c:	09 f4       	brne	.+2      	; 0x1710 <ProcessWide+0x1e>
    170e:	4d c0       	rjmp	.+154    	; 0x17aa <ProcessWide+0xb8>
    1710:	71 c0       	rjmp	.+226    	; 0x17f4 <ProcessWide+0x102>
		{
			case _FOCUS_MODE_AUTO:
			{		
				if (_ZOOM_MODE_GRADING == g_stStatusCmd.ZoomMode)
    1712:	80 91 c5 03 	lds	r24, 0x03C5
    1716:	81 11       	cpse	r24, r1
    1718:	0d c0       	rjmp	.+26     	; 0x1734 <ProcessWide+0x42>
					{
						break;
					}

					#else
					g_stStatusCmd.bStartFar = false;
    171a:	10 92 ba 03 	sts	0x03BA, r1
					
					if (g_stStatusCmd.uiXRate>0)
    171e:	80 91 ac 03 	lds	r24, 0x03AC
    1722:	88 23       	and	r24, r24
    1724:	09 f4       	brne	.+2      	; 0x1728 <ProcessWide+0x36>
    1726:	66 c0       	rjmp	.+204    	; 0x17f4 <ProcessWide+0x102>
					{
						g_stStatusCmd.uiXRate --;
    1728:	81 50       	subi	r24, 0x01	; 1
    172a:	80 93 ac 03 	sts	0x03AC, r24
					else
					{
						break;
					}

					CAM_SetZoomDirect();
    172e:	0e 94 bb 00 	call	0x176	; 0x176 <CAM_SetZoomDirect>
    1732:	32 c0       	rjmp	.+100    	; 0x1798 <ProcessWide+0xa6>
					#endif
				} 
				else
				{
					CAM_InqZoomPos();
    1734:	0e 94 15 05 	call	0xa2a	; 0xa2a <CAM_InqZoomPos>
    1738:	2f e7       	ldi	r18, 0x7F	; 127
    173a:	89 ea       	ldi	r24, 0xA9	; 169
    173c:	93 e0       	ldi	r25, 0x03	; 3
    173e:	21 50       	subi	r18, 0x01	; 1
    1740:	80 40       	sbci	r24, 0x00	; 0
    1742:	90 40       	sbci	r25, 0x00	; 0
    1744:	e1 f7       	brne	.-8      	; 0x173e <ProcessWide+0x4c>
    1746:	00 c0       	rjmp	.+0      	; 0x1748 <ProcessWide+0x56>
    1748:	00 00       	nop
					_delay_ms(150);
					GetInquiryResult(&g_stCameraCmd);
    174a:	85 e7       	ldi	r24, 0x75	; 117
    174c:	93 e0       	ldi	r25, 0x03	; 3
    174e:	0e 94 cf 06 	call	0xd9e	; 0xd9e <GetInquiryResult>
					g_stStatusCmd.uiZoomPos = GetZoomPos();
    1752:	0e 94 e6 05 	call	0xbcc	; 0xbcc <GetZoomPos>
    1756:	8c 01       	movw	r16, r24
    1758:	90 93 b7 03 	sts	0x03B7, r25
    175c:	80 93 b6 03 	sts	0x03B6, r24
					g_stStatusCmd.uiXRate = GetXRateByPos();
    1760:	0e 94 58 0a 	call	0x14b0	; 0x14b0 <GetXRateByPos>
    1764:	80 93 ac 03 	sts	0x03AC, r24
					
					if (g_stStatusCmd.uiZoomPos > uiZoomRatioTable[g_stStatusCmd.uiModeID%_MAX_ZOOM_PARA_NUM][0])
    1768:	80 91 a5 03 	lds	r24, 0x03A5
    176c:	81 70       	andi	r24, 0x01	; 1
    176e:	c8 2f       	mov	r28, r24
    1770:	20 e0       	ldi	r18, 0x00	; 0
    1772:	d2 2f       	mov	r29, r18
    1774:	88 e6       	ldi	r24, 0x68	; 104
    1776:	8c 9f       	mul	r24, r28
    1778:	f0 01       	movw	r30, r0
    177a:	8d 9f       	mul	r24, r29
    177c:	f0 0d       	add	r31, r0
    177e:	11 24       	eor	r1, r1
    1780:	eb 58       	subi	r30, 0x8B	; 139
    1782:	fd 4f       	sbci	r31, 0xFD	; 253
    1784:	80 81       	ld	r24, Z
    1786:	91 81       	ldd	r25, Z+1	; 0x01
    1788:	80 17       	cp	r24, r16
    178a:	91 07       	cpc	r25, r17
    178c:	28 f4       	brcc	.+10     	; 0x1798 <ProcessWide+0xa6>
					{
						#ifdef _DEBUG_PRINTF
						MyPrintf("Execute Zoom Far\r\n");
						#endif
						
						CAM_SetZoomVWide();
    178e:	0e 94 9f 00 	call	0x13e	; 0x13e <CAM_SetZoomVWide>
						
						g_stStatusCmd.bStartZoomOut= true;
    1792:	81 e0       	ldi	r24, 0x01	; 1
    1794:	80 93 bb 03 	sts	0x03BB, r24
				}
				
				#if(_WIDE_TELE_SET_DISPLAY == 1)
				g_stStatusCmd.bIsDisplay = true;
				#endif
				g_bTitle1Change = true;
    1798:	81 e0       	ldi	r24, 0x01	; 1
    179a:	80 93 72 03 	sts	0x0372, r24
				g_stStatusCmd.uiDisplayFlag |= _DISPLAY_ZOOM;
    179e:	ef eb       	ldi	r30, 0xBF	; 191
    17a0:	f3 e0       	ldi	r31, 0x03	; 3
    17a2:	80 81       	ld	r24, Z
    17a4:	81 60       	ori	r24, 0x01	; 1
    17a6:	80 83       	st	Z, r24

			}
			break;
    17a8:	25 c0       	rjmp	.+74     	; 0x17f4 <ProcessWide+0x102>
				{
					#ifdef _DEBUG_PRINTF
					MyPrintf("Execute Focus Far\r\n");
					#endif
					
					CAM_SetSFarFocus();
    17aa:	0e 94 43 01 	call	0x286	; 0x286 <CAM_SetSFarFocus>
					
					g_stStatusCmd.bStartFar = true;
    17ae:	81 e0       	ldi	r24, 0x01	; 1
    17b0:	80 93 ba 03 	sts	0x03BA, r24
				} 
				
				#if(_WIDE_TELE_SET_DISPLAY == 1)
				g_stStatusCmd.bIsDisplay = true;
				#endif
				g_bTitle1Change = true;
    17b4:	80 93 72 03 	sts	0x0372, r24
				//g_stStatusCmd.uiDisplayFlag |= _DISPLAY_FOCUS;
			}
			break;
    17b8:	1d c0       	rjmp	.+58     	; 0x17f4 <ProcessWide+0x102>
			//error
			break;
		}
		
	}
	else if(g_stStatusCmd.WBMode == _WB_MODE_MANUAL_R)
    17ba:	82 30       	cpi	r24, 0x02	; 2
    17bc:	69 f4       	brne	.+26     	; 0x17d8 <ProcessWide+0xe6>
	{
		if(g_stStatusCmd.uiRGain > 1)
    17be:	80 91 a8 03 	lds	r24, 0x03A8
    17c2:	82 30       	cpi	r24, 0x02	; 2
    17c4:	b8 f0       	brcs	.+46     	; 0x17f4 <ProcessWide+0x102>
		{
			g_stStatusCmd.uiRGain -= 1;
    17c6:	81 50       	subi	r24, 0x01	; 1
    17c8:	80 93 a8 03 	sts	0x03A8, r24
			CAM_SetRGainDirect(g_stStatusCmd.uiRGain);
    17cc:	0e 94 0d 02 	call	0x41a	; 0x41a <CAM_SetRGainDirect>
			g_bTitle2Change = true;
    17d0:	81 e0       	ldi	r24, 0x01	; 1
    17d2:	80 93 71 03 	sts	0x0371, r24
    17d6:	0e c0       	rjmp	.+28     	; 0x17f4 <ProcessWide+0x102>
		}
	}
	else if(g_stStatusCmd.WBMode == _WB_MODE_MANUAL_B)
    17d8:	83 30       	cpi	r24, 0x03	; 3
    17da:	61 f4       	brne	.+24     	; 0x17f4 <ProcessWide+0x102>
	{
		if(g_stStatusCmd.uiBGain > 1)
    17dc:	80 91 aa 03 	lds	r24, 0x03AA
    17e0:	82 30       	cpi	r24, 0x02	; 2
    17e2:	40 f0       	brcs	.+16     	; 0x17f4 <ProcessWide+0x102>
		{
			g_stStatusCmd.uiBGain -= 1;
    17e4:	81 50       	subi	r24, 0x01	; 1
    17e6:	80 93 aa 03 	sts	0x03AA, r24
			CAM_SetBGainDirect(g_stStatusCmd.uiBGain);
    17ea:	0e 94 32 02 	call	0x464	; 0x464 <CAM_SetBGainDirect>
			g_bTitle2Change = true;
    17ee:	81 e0       	ldi	r24, 0x01	; 1
    17f0:	80 93 71 03 	sts	0x0371, r24
	}
	
	
	
	return;
}
    17f4:	df 91       	pop	r29
    17f6:	cf 91       	pop	r28
    17f8:	1f 91       	pop	r17
    17fa:	0f 91       	pop	r16
    17fc:	08 95       	ret

000017fe <ProcessTele>:

void ProcessTele(void) //zoom in / Near
{
    17fe:	0f 93       	push	r16
    1800:	1f 93       	push	r17
    1802:	cf 93       	push	r28
    1804:	df 93       	push	r29
	if(g_stStatusCmd.WBMode == _WB_MODE_NORMAL)
    1806:	80 91 c7 03 	lds	r24, 0x03C7
    180a:	81 11       	cpse	r24, r1
    180c:	5c c0       	rjmp	.+184    	; 0x18c6 <ProcessTele+0xc8>
	{
		switch(g_stStatusCmd.FocusMode)
    180e:	80 91 b5 03 	lds	r24, 0x03B5
    1812:	88 23       	and	r24, r24
    1814:	21 f0       	breq	.+8      	; 0x181e <ProcessTele+0x20>
    1816:	81 30       	cpi	r24, 0x01	; 1
    1818:	09 f4       	brne	.+2      	; 0x181c <ProcessTele+0x1e>
    181a:	4d c0       	rjmp	.+154    	; 0x18b6 <ProcessTele+0xb8>
    181c:	71 c0       	rjmp	.+226    	; 0x1900 <ProcessTele+0x102>
		{
			case _FOCUS_MODE_AUTO:
			{			
				if (_ZOOM_MODE_GRADING == g_stStatusCmd.ZoomMode)
    181e:	80 91 c5 03 	lds	r24, 0x03C5
    1822:	81 11       	cpse	r24, r1
    1824:	0d c0       	rjmp	.+26     	; 0x1840 <ProcessTele+0x42>
					else
					{
						break;
					}
					#else
					g_stStatusCmd.bStartNear = false;					
    1826:	10 92 bc 03 	sts	0x03BC, r1
					if (g_stStatusCmd.uiXRate<_MAX_RATE-1)
    182a:	80 91 ac 03 	lds	r24, 0x03AC
    182e:	83 33       	cpi	r24, 0x33	; 51
    1830:	08 f0       	brcs	.+2      	; 0x1834 <ProcessTele+0x36>
    1832:	66 c0       	rjmp	.+204    	; 0x1900 <ProcessTele+0x102>
					{
						g_stStatusCmd.uiXRate ++;
    1834:	8f 5f       	subi	r24, 0xFF	; 255
    1836:	80 93 ac 03 	sts	0x03AC, r24
					else
					{
						break;
					}

					CAM_SetZoomDirect();
    183a:	0e 94 bb 00 	call	0x176	; 0x176 <CAM_SetZoomDirect>
    183e:	32 c0       	rjmp	.+100    	; 0x18a4 <ProcessTele+0xa6>
					#endif
				}
				else
				{
					CAM_InqZoomPos();
    1840:	0e 94 15 05 	call	0xa2a	; 0xa2a <CAM_InqZoomPos>
    1844:	2f e7       	ldi	r18, 0x7F	; 127
    1846:	89 ea       	ldi	r24, 0xA9	; 169
    1848:	93 e0       	ldi	r25, 0x03	; 3
    184a:	21 50       	subi	r18, 0x01	; 1
    184c:	80 40       	sbci	r24, 0x00	; 0
    184e:	90 40       	sbci	r25, 0x00	; 0
    1850:	e1 f7       	brne	.-8      	; 0x184a <ProcessTele+0x4c>
    1852:	00 c0       	rjmp	.+0      	; 0x1854 <ProcessTele+0x56>
    1854:	00 00       	nop
					_delay_ms(150);
					GetInquiryResult(&g_stCameraCmd);
    1856:	85 e7       	ldi	r24, 0x75	; 117
    1858:	93 e0       	ldi	r25, 0x03	; 3
    185a:	0e 94 cf 06 	call	0xd9e	; 0xd9e <GetInquiryResult>
					g_stStatusCmd.uiZoomPos = GetZoomPos();
    185e:	0e 94 e6 05 	call	0xbcc	; 0xbcc <GetZoomPos>
    1862:	8c 01       	movw	r16, r24
    1864:	90 93 b7 03 	sts	0x03B7, r25
    1868:	80 93 b6 03 	sts	0x03B6, r24
					g_stStatusCmd.uiXRate = GetXRateByPos();
    186c:	0e 94 58 0a 	call	0x14b0	; 0x14b0 <GetXRateByPos>
    1870:	80 93 ac 03 	sts	0x03AC, r24
					
					if (g_stStatusCmd.uiZoomPos < uiZoomRatioTable[g_stStatusCmd.uiModeID%_MAX_ZOOM_PARA_NUM][_MAX_RATE-1])
    1874:	80 91 a5 03 	lds	r24, 0x03A5
    1878:	81 70       	andi	r24, 0x01	; 1
    187a:	c8 2f       	mov	r28, r24
    187c:	20 e0       	ldi	r18, 0x00	; 0
    187e:	d2 2f       	mov	r29, r18
    1880:	88 e6       	ldi	r24, 0x68	; 104
    1882:	8c 9f       	mul	r24, r28
    1884:	f0 01       	movw	r30, r0
    1886:	8d 9f       	mul	r24, r29
    1888:	f0 0d       	add	r31, r0
    188a:	11 24       	eor	r1, r1
    188c:	e5 52       	subi	r30, 0x25	; 37
    188e:	fd 4f       	sbci	r31, 0xFD	; 253
    1890:	80 81       	ld	r24, Z
    1892:	91 81       	ldd	r25, Z+1	; 0x01
    1894:	08 17       	cp	r16, r24
    1896:	19 07       	cpc	r17, r25
    1898:	28 f4       	brcc	.+10     	; 0x18a4 <ProcessTele+0xa6>
					{
						#ifdef _DEBUG_PRINTF
						MyPrintf("Execute Zoom Near\r\n");
						#endif
						
						CAM_SetZoomVTele();
    189a:	0e 94 83 00 	call	0x106	; 0x106 <CAM_SetZoomVTele>
						
						g_stStatusCmd.bStartZoomIn= true;
    189e:	81 e0       	ldi	r24, 0x01	; 1
    18a0:	80 93 bd 03 	sts	0x03BD, r24
				}
				
				#if(_WIDE_TELE_SET_DISPLAY == 1)
				g_stStatusCmd.bIsDisplay = true;
				#endif
				g_bTitle1Change = true;
    18a4:	81 e0       	ldi	r24, 0x01	; 1
    18a6:	80 93 72 03 	sts	0x0372, r24
				g_stStatusCmd.uiDisplayFlag |= _DISPLAY_ZOOM;
    18aa:	ef eb       	ldi	r30, 0xBF	; 191
    18ac:	f3 e0       	ldi	r31, 0x03	; 3
    18ae:	80 81       	ld	r24, Z
    18b0:	81 60       	ori	r24, 0x01	; 1
    18b2:	80 83       	st	Z, r24
			}
			break;
    18b4:	25 c0       	rjmp	.+74     	; 0x1900 <ProcessTele+0x102>
				{
					#ifdef _DEBUG_PRINTF
					MyPrintf("Execute Focus Near\r\n");
					#endif
					
					CAM_SetSNearFocus();
    18b6:	0e 94 5f 01 	call	0x2be	; 0x2be <CAM_SetSNearFocus>
					
					g_stStatusCmd.bStartNear = true;
    18ba:	81 e0       	ldi	r24, 0x01	; 1
    18bc:	80 93 bc 03 	sts	0x03BC, r24
				}
				
				#if(_WIDE_TELE_SET_DISPLAY == 1)
				g_stStatusCmd.bIsDisplay = true;
				#endif
				g_bTitle1Change = true;
    18c0:	80 93 72 03 	sts	0x0372, r24
				//g_stStatusCmd.uiDisplayFlag |= _DISPLAY_FOCUS;
			}
			break;
    18c4:	1d c0       	rjmp	.+58     	; 0x1900 <ProcessTele+0x102>
			break;
		}
		

	}
	else if(g_stStatusCmd.WBMode == _WB_MODE_MANUAL_R)
    18c6:	82 30       	cpi	r24, 0x02	; 2
    18c8:	69 f4       	brne	.+26     	; 0x18e4 <ProcessTele+0xe6>
	{
		if(g_stStatusCmd.uiRGain < 255)
    18ca:	80 91 a8 03 	lds	r24, 0x03A8
    18ce:	8f 3f       	cpi	r24, 0xFF	; 255
    18d0:	b9 f0       	breq	.+46     	; 0x1900 <ProcessTele+0x102>
		{
			g_stStatusCmd.uiRGain += 1;
    18d2:	8f 5f       	subi	r24, 0xFF	; 255
    18d4:	80 93 a8 03 	sts	0x03A8, r24
			CAM_SetRGainDirect(g_stStatusCmd.uiRGain);
    18d8:	0e 94 0d 02 	call	0x41a	; 0x41a <CAM_SetRGainDirect>
			g_bTitle2Change = true;
    18dc:	81 e0       	ldi	r24, 0x01	; 1
    18de:	80 93 71 03 	sts	0x0371, r24
    18e2:	0e c0       	rjmp	.+28     	; 0x1900 <ProcessTele+0x102>
		}
	}
	else if(g_stStatusCmd.WBMode == _WB_MODE_MANUAL_B)
    18e4:	83 30       	cpi	r24, 0x03	; 3
    18e6:	61 f4       	brne	.+24     	; 0x1900 <ProcessTele+0x102>
	{
		if(g_stStatusCmd.uiBGain < 255)
    18e8:	80 91 aa 03 	lds	r24, 0x03AA
    18ec:	8f 3f       	cpi	r24, 0xFF	; 255
    18ee:	41 f0       	breq	.+16     	; 0x1900 <ProcessTele+0x102>
		{
			g_stStatusCmd.uiBGain += 1;
    18f0:	8f 5f       	subi	r24, 0xFF	; 255
    18f2:	80 93 aa 03 	sts	0x03AA, r24
			CAM_SetBGainDirect(g_stStatusCmd.uiBGain);
    18f6:	0e 94 32 02 	call	0x464	; 0x464 <CAM_SetBGainDirect>
			g_bTitle2Change = true;
    18fa:	81 e0       	ldi	r24, 0x01	; 1
    18fc:	80 93 71 03 	sts	0x0371, r24
		}
	}
	
	return;
}
    1900:	df 91       	pop	r29
    1902:	cf 91       	pop	r28
    1904:	1f 91       	pop	r17
    1906:	0f 91       	pop	r16
    1908:	08 95       	ret

0000190a <ProcessAutoWB>:
	
	return;
}
void ProcessAutoWB(void)
{
	if(g_stStatusCmd.WBMode == _WB_MODE_NORMAL)
    190a:	80 91 c7 03 	lds	r24, 0x03C7
    190e:	81 11       	cpse	r24, r1
    1910:	46 c0       	rjmp	.+140    	; 0x199e <ProcessAutoWB+0x94>
	{
		LedFlashing(3);
    1912:	83 e0       	ldi	r24, 0x03	; 3
    1914:	0e 94 50 08 	call	0x10a0	; 0x10a0 <LedFlashing>
					
		g_stStatusCmd.WBMode = _WB_MODE_AUTO;
    1918:	81 e0       	ldi	r24, 0x01	; 1
    191a:	80 93 c7 03 	sts	0x03C7, r24
		CAM_SetWBATW();
    191e:	0e 94 d5 01 	call	0x3aa	; 0x3aa <CAM_SetWBATW>

		//Inq R Gain
		CAM_InqRGain();
    1922:	0e 94 4d 05 	call	0xa9a	; 0xa9a <CAM_InqRGain>
    1926:	2f ef       	ldi	r18, 0xFF	; 255
    1928:	80 e7       	ldi	r24, 0x70	; 112
    192a:	92 e0       	ldi	r25, 0x02	; 2
    192c:	21 50       	subi	r18, 0x01	; 1
    192e:	80 40       	sbci	r24, 0x00	; 0
    1930:	90 40       	sbci	r25, 0x00	; 0
    1932:	e1 f7       	brne	.-8      	; 0x192c <ProcessAutoWB+0x22>
    1934:	00 c0       	rjmp	.+0      	; 0x1936 <ProcessAutoWB+0x2c>
    1936:	00 00       	nop
		_delay_ms(100);
		//USART_GetCommand(g_stCameraCmd.InquiryResult,&g_stCameraCmd.InquiryResultLength);
		GetInquiryResult(&g_stCameraCmd);
    1938:	85 e7       	ldi	r24, 0x75	; 117
    193a:	93 e0       	ldi	r25, 0x03	; 3
    193c:	0e 94 cf 06 	call	0xd9e	; 0xd9e <GetInquiryResult>
		g_stStatusCmd.uiRGain = GetRGain();
    1940:	0e 94 3a 06 	call	0xc74	; 0xc74 <GetRGain>
    1944:	80 93 a8 03 	sts	0x03A8, r24

		//Inq B Gain
		CAM_InqBGain();
    1948:	0e 94 69 05 	call	0xad2	; 0xad2 <CAM_InqBGain>
    194c:	2f ef       	ldi	r18, 0xFF	; 255
    194e:	80 e7       	ldi	r24, 0x70	; 112
    1950:	92 e0       	ldi	r25, 0x02	; 2
    1952:	21 50       	subi	r18, 0x01	; 1
    1954:	80 40       	sbci	r24, 0x00	; 0
    1956:	90 40       	sbci	r25, 0x00	; 0
    1958:	e1 f7       	brne	.-8      	; 0x1952 <ProcessAutoWB+0x48>
    195a:	00 c0       	rjmp	.+0      	; 0x195c <ProcessAutoWB+0x52>
    195c:	00 00       	nop
		_delay_ms(100);
		//USART_GetCommand(g_stCameraCmd.InquiryResult,&g_stCameraCmd.InquiryResultLength);
		GetInquiryResult(&g_stCameraCmd);
    195e:	85 e7       	ldi	r24, 0x75	; 117
    1960:	93 e0       	ldi	r25, 0x03	; 3
    1962:	0e 94 cf 06 	call	0xd9e	; 0xd9e <GetInquiryResult>
		g_stStatusCmd.uiBGain = GetBGain();
    1966:	0e 94 4a 06 	call	0xc94	; 0xc94 <GetBGain>
    196a:	80 93 aa 03 	sts	0x03AA, r24

		//save current value in the buff
		eeprom_write_byte((uint8_t *)0x00,g_stStatusCmd.uiRGain);
    196e:	60 91 a8 03 	lds	r22, 0x03A8
    1972:	80 e0       	ldi	r24, 0x00	; 0
    1974:	90 e0       	ldi	r25, 0x00	; 0
    1976:	0e 94 9a 18 	call	0x3134	; 0x3134 <__eewr_byte_m168pa>
    197a:	2f ef       	ldi	r18, 0xFF	; 255
    197c:	81 ee       	ldi	r24, 0xE1	; 225
    197e:	94 e0       	ldi	r25, 0x04	; 4
    1980:	21 50       	subi	r18, 0x01	; 1
    1982:	80 40       	sbci	r24, 0x00	; 0
    1984:	90 40       	sbci	r25, 0x00	; 0
    1986:	e1 f7       	brne	.-8      	; 0x1980 <ProcessAutoWB+0x76>
    1988:	00 c0       	rjmp	.+0      	; 0x198a <ProcessAutoWB+0x80>
    198a:	00 00       	nop
		_delay_ms(200);
		eeprom_write_byte((uint8_t *)0x01,g_stStatusCmd.uiBGain);
    198c:	60 91 aa 03 	lds	r22, 0x03AA
    1990:	81 e0       	ldi	r24, 0x01	; 1
    1992:	90 e0       	ldi	r25, 0x00	; 0
    1994:	0e 94 9a 18 	call	0x3134	; 0x3134 <__eewr_byte_m168pa>
		
		g_bTitle1Change = true;
    1998:	81 e0       	ldi	r24, 0x01	; 1
    199a:	80 93 72 03 	sts	0x0372, r24
    199e:	08 95       	ret

000019a0 <ProcessManualWB>:
	return;
}

void ProcessManualWB(void)
{
	if(g_stStatusCmd.WBMode == _WB_MODE_NORMAL)
    19a0:	80 91 c7 03 	lds	r24, 0x03C7
    19a4:	81 11       	cpse	r24, r1
    19a6:	48 c0       	rjmp	.+144    	; 0x1a38 <ProcessManualWB+0x98>
	{
		LedFlashing(3);
    19a8:	83 e0       	ldi	r24, 0x03	; 3
    19aa:	0e 94 50 08 	call	0x10a0	; 0x10a0 <LedFlashing>
		g_stStatusCmd.WBMode = _WB_MODE_MANUAL_R;
    19ae:	82 e0       	ldi	r24, 0x02	; 2
    19b0:	80 93 c7 03 	sts	0x03C7, r24
		CAM_SetWBMaunal();
    19b4:	0e 94 f1 01 	call	0x3e2	; 0x3e2 <CAM_SetWBMaunal>

		//Inq R Gain
		CAM_InqRGain();
    19b8:	0e 94 4d 05 	call	0xa9a	; 0xa9a <CAM_InqRGain>
    19bc:	2f ef       	ldi	r18, 0xFF	; 255
    19be:	80 e7       	ldi	r24, 0x70	; 112
    19c0:	92 e0       	ldi	r25, 0x02	; 2
    19c2:	21 50       	subi	r18, 0x01	; 1
    19c4:	80 40       	sbci	r24, 0x00	; 0
    19c6:	90 40       	sbci	r25, 0x00	; 0
    19c8:	e1 f7       	brne	.-8      	; 0x19c2 <ProcessManualWB+0x22>
    19ca:	00 c0       	rjmp	.+0      	; 0x19cc <ProcessManualWB+0x2c>
    19cc:	00 00       	nop
		_delay_ms(100);
		GetInquiryResult(&g_stCameraCmd);
    19ce:	85 e7       	ldi	r24, 0x75	; 117
    19d0:	93 e0       	ldi	r25, 0x03	; 3
    19d2:	0e 94 cf 06 	call	0xd9e	; 0xd9e <GetInquiryResult>
		g_stStatusCmd.uiRGain = GetRGain();
    19d6:	0e 94 3a 06 	call	0xc74	; 0xc74 <GetRGain>
    19da:	80 93 a8 03 	sts	0x03A8, r24

		//Inq B Gain
		CAM_InqBGain();
    19de:	0e 94 69 05 	call	0xad2	; 0xad2 <CAM_InqBGain>
    19e2:	2f ef       	ldi	r18, 0xFF	; 255
    19e4:	80 e7       	ldi	r24, 0x70	; 112
    19e6:	92 e0       	ldi	r25, 0x02	; 2
    19e8:	21 50       	subi	r18, 0x01	; 1
    19ea:	80 40       	sbci	r24, 0x00	; 0
    19ec:	90 40       	sbci	r25, 0x00	; 0
    19ee:	e1 f7       	brne	.-8      	; 0x19e8 <ProcessManualWB+0x48>
    19f0:	00 c0       	rjmp	.+0      	; 0x19f2 <ProcessManualWB+0x52>
    19f2:	00 00       	nop
		_delay_ms(100);
		GetInquiryResult(&g_stCameraCmd);
    19f4:	85 e7       	ldi	r24, 0x75	; 117
    19f6:	93 e0       	ldi	r25, 0x03	; 3
    19f8:	0e 94 cf 06 	call	0xd9e	; 0xd9e <GetInquiryResult>
		g_stStatusCmd.uiBGain = GetBGain();
    19fc:	0e 94 4a 06 	call	0xc94	; 0xc94 <GetBGain>
    1a00:	80 93 aa 03 	sts	0x03AA, r24

		//save current value in the buff
		eeprom_write_byte((uint8_t *)0x00,g_stStatusCmd.uiRGain);
    1a04:	60 91 a8 03 	lds	r22, 0x03A8
    1a08:	80 e0       	ldi	r24, 0x00	; 0
    1a0a:	90 e0       	ldi	r25, 0x00	; 0
    1a0c:	0e 94 9a 18 	call	0x3134	; 0x3134 <__eewr_byte_m168pa>
    1a10:	2f ef       	ldi	r18, 0xFF	; 255
    1a12:	82 e5       	ldi	r24, 0x52	; 82
    1a14:	97 e0       	ldi	r25, 0x07	; 7
    1a16:	21 50       	subi	r18, 0x01	; 1
    1a18:	80 40       	sbci	r24, 0x00	; 0
    1a1a:	90 40       	sbci	r25, 0x00	; 0
    1a1c:	e1 f7       	brne	.-8      	; 0x1a16 <ProcessManualWB+0x76>
    1a1e:	00 c0       	rjmp	.+0      	; 0x1a20 <ProcessManualWB+0x80>
    1a20:	00 00       	nop
		_delay_ms(300);
		eeprom_write_byte((uint8_t *)0x01,g_stStatusCmd.uiBGain);
    1a22:	60 91 aa 03 	lds	r22, 0x03AA
    1a26:	81 e0       	ldi	r24, 0x01	; 1
    1a28:	90 e0       	ldi	r25, 0x00	; 0
    1a2a:	0e 94 9a 18 	call	0x3134	; 0x3134 <__eewr_byte_m168pa>

		g_bTitle1Change = true;
    1a2e:	81 e0       	ldi	r24, 0x01	; 1
    1a30:	80 93 72 03 	sts	0x0372, r24
		g_bTitle2Change = true;
    1a34:	80 93 71 03 	sts	0x0371, r24
    1a38:	08 95       	ret

00001a3a <ProcessSwitchRB>:
	return;
}

void ProcessSwitchRB(void)
{
	switch(g_stStatusCmd.WBMode)
    1a3a:	80 91 c7 03 	lds	r24, 0x03C7
    1a3e:	82 30       	cpi	r24, 0x02	; 2
    1a40:	c1 f0       	breq	.+48     	; 0x1a72 <ProcessSwitchRB+0x38>
    1a42:	83 30       	cpi	r24, 0x03	; 3
    1a44:	e9 f0       	breq	.+58     	; 0x1a80 <ProcessSwitchRB+0x46>
    1a46:	81 11       	cpse	r24, r1
    1a48:	21 c0       	rjmp	.+66     	; 0x1a8c <ProcessSwitchRB+0x52>
	{
		case _WB_MODE_NORMAL:
		{
			LedFlashing(3);
    1a4a:	83 e0       	ldi	r24, 0x03	; 3
    1a4c:	0e 94 50 08 	call	0x10a0	; 0x10a0 <LedFlashing>
			if (_ZOOM_MODE_GRADING == g_stStatusCmd.ZoomMode)
    1a50:	80 91 c5 03 	lds	r24, 0x03C5
    1a54:	81 11       	cpse	r24, r1
    1a56:	04 c0       	rjmp	.+8      	; 0x1a60 <ProcessSwitchRB+0x26>
			{
				g_stStatusCmd.ZoomMode = _ZOOM_MODE_STEPLESS;
    1a58:	81 e0       	ldi	r24, 0x01	; 1
    1a5a:	80 93 c5 03 	sts	0x03C5, r24
    1a5e:	08 95       	ret
			} 
			else
			{
				CAM_SetZoomStop();
    1a60:	0e 94 67 00 	call	0xce	; 0xce <CAM_SetZoomStop>
				g_stStatusCmd.bStartZoomIn= false;
    1a64:	10 92 bd 03 	sts	0x03BD, r1
				g_stStatusCmd.bStartZoomOut= false;
    1a68:	10 92 bb 03 	sts	0x03BB, r1
				g_stStatusCmd.ZoomMode = _ZOOM_MODE_GRADING;
    1a6c:	10 92 c5 03 	sts	0x03C5, r1
    1a70:	08 95       	ret
		}
		break;
		case _WB_MODE_AUTO:
		break;
		case _WB_MODE_MANUAL_R:
			LedFlashing(3);
    1a72:	83 e0       	ldi	r24, 0x03	; 3
    1a74:	0e 94 50 08 	call	0x10a0	; 0x10a0 <LedFlashing>
			g_stStatusCmd.WBMode = _WB_MODE_MANUAL_B;
    1a78:	83 e0       	ldi	r24, 0x03	; 3
    1a7a:	80 93 c7 03 	sts	0x03C7, r24
		break;
    1a7e:	08 95       	ret
		case _WB_MODE_MANUAL_B:
			LedFlashing(3);
    1a80:	83 e0       	ldi	r24, 0x03	; 3
    1a82:	0e 94 50 08 	call	0x10a0	; 0x10a0 <LedFlashing>
			g_stStatusCmd.WBMode = _WB_MODE_MANUAL_R;
    1a86:	82 e0       	ldi	r24, 0x02	; 2
    1a88:	80 93 c7 03 	sts	0x03C7, r24
    1a8c:	08 95       	ret

00001a8e <CReleaseKeyMessageHandle>:
	uint8_t XRate = 1;
	uint8_t CurrentFocus = 0;
	
	bool bDoZoomAndFocusStop = false;
	
	if(g_ucWideKeyRelease)
    1a8e:	20 91 54 03 	lds	r18, 0x0354
    1a92:	22 23       	and	r18, r18
    1a94:	21 f0       	breq	.+8      	; 0x1a9e <CReleaseKeyMessageHandle+0x10>
	{
		g_ucWideKeyRelease = false;
    1a96:	10 92 54 03 	sts	0x0354, r1
		bDoZoomAndFocusStop = true;
    1a9a:	31 e0       	ldi	r19, 0x01	; 1
    1a9c:	09 c0       	rjmp	.+18     	; 0x1ab0 <CReleaseKeyMessageHandle+0x22>
	}
	else if(g_ucTeleKeyRelease)
    1a9e:	20 91 52 03 	lds	r18, 0x0352
    1aa2:	22 23       	and	r18, r18
    1aa4:	21 f0       	breq	.+8      	; 0x1aae <CReleaseKeyMessageHandle+0x20>
	{
		g_ucTeleKeyRelease = false;
    1aa6:	10 92 52 03 	sts	0x0352, r1
		bDoZoomAndFocusStop = true;
    1aaa:	31 e0       	ldi	r19, 0x01	; 1
    1aac:	01 c0       	rjmp	.+2      	; 0x1ab0 <CReleaseKeyMessageHandle+0x22>
void CReleaseKeyMessageHandle(void)
{
	uint8_t XRate = 1;
	uint8_t CurrentFocus = 0;
	
	bool bDoZoomAndFocusStop = false;
    1aae:	30 e0       	ldi	r19, 0x00	; 0
	{
		g_ucTeleKeyRelease = false;
		bDoZoomAndFocusStop = true;
	}

	if(_FOCUS_MODE_MANUAL == g_stStatusCmd.FocusMode && (true == g_stStatusCmd.bStartFar|| true == g_stStatusCmd.bStartNear))
    1ab0:	20 91 b5 03 	lds	r18, 0x03B5
    1ab4:	21 30       	cpi	r18, 0x01	; 1
    1ab6:	09 f0       	breq	.+2      	; 0x1aba <CReleaseKeyMessageHandle+0x2c>
    1ab8:	ae c0       	rjmp	.+348    	; 0x1c16 <CReleaseKeyMessageHandle+0x188>
    1aba:	20 91 ba 03 	lds	r18, 0x03BA
    1abe:	21 11       	cpse	r18, r1
    1ac0:	05 c0       	rjmp	.+10     	; 0x1acc <CReleaseKeyMessageHandle+0x3e>
    1ac2:	20 91 bc 03 	lds	r18, 0x03BC
    1ac6:	22 23       	and	r18, r18
    1ac8:	09 f4       	brne	.+2      	; 0x1acc <CReleaseKeyMessageHandle+0x3e>
    1aca:	a5 c0       	rjmp	.+330    	; 0x1c16 <CReleaseKeyMessageHandle+0x188>
	{
		
		if(bDoZoomAndFocusStop||(g_stStatusCmd.uiFocusPos >= _FOCUS_POS_8K&&true == g_stStatusCmd.bStartNear))
    1acc:	31 11       	cpse	r19, r1
    1ace:	0d c0       	rjmp	.+26     	; 0x1aea <CReleaseKeyMessageHandle+0x5c>
    1ad0:	80 91 b8 03 	lds	r24, 0x03B8
    1ad4:	90 91 b9 03 	lds	r25, 0x03B9
    1ad8:	81 15       	cp	r24, r1
    1ada:	90 4b       	sbci	r25, 0xB0	; 176
    1adc:	08 f4       	brcc	.+2      	; 0x1ae0 <CReleaseKeyMessageHandle+0x52>
    1ade:	4c c0       	rjmp	.+152    	; 0x1b78 <CReleaseKeyMessageHandle+0xea>
    1ae0:	80 91 bc 03 	lds	r24, 0x03BC
    1ae4:	88 23       	and	r24, r24
    1ae6:	09 f4       	brne	.+2      	; 0x1aea <CReleaseKeyMessageHandle+0x5c>
    1ae8:	47 c0       	rjmp	.+142    	; 0x1b78 <CReleaseKeyMessageHandle+0xea>
			#ifdef _DEBUG_PRINTF
			MyPrintf("Stop Focus\r\n");
			#endif
			//Tune the manual focus, temporary measure, need solved.

			if(g_stStatusCmd.uiXRate<3)
    1aea:	80 91 ac 03 	lds	r24, 0x03AC
    1aee:	83 30       	cpi	r24, 0x03	; 3
    1af0:	38 f4       	brcc	.+14     	; 0x1b00 <CReleaseKeyMessageHandle+0x72>
    1af2:	8f ec       	ldi	r24, 0xCF	; 207
    1af4:	97 e0       	ldi	r25, 0x07	; 7
    1af6:	01 97       	sbiw	r24, 0x01	; 1
    1af8:	f1 f7       	brne	.-4      	; 0x1af6 <CReleaseKeyMessageHandle+0x68>
    1afa:	00 c0       	rjmp	.+0      	; 0x1afc <CReleaseKeyMessageHandle+0x6e>
    1afc:	00 00       	nop
    1afe:	2d c0       	rjmp	.+90     	; 0x1b5a <CReleaseKeyMessageHandle+0xcc>
				_delay_ms(1);
			else if(g_stStatusCmd.uiXRate<4)
    1b00:	84 30       	cpi	r24, 0x04	; 4
    1b02:	50 f4       	brcc	.+20     	; 0x1b18 <CReleaseKeyMessageHandle+0x8a>
    1b04:	9f e7       	ldi	r25, 0x7F	; 127
    1b06:	28 e3       	ldi	r18, 0x38	; 56
    1b08:	81 e0       	ldi	r24, 0x01	; 1
    1b0a:	91 50       	subi	r25, 0x01	; 1
    1b0c:	20 40       	sbci	r18, 0x00	; 0
    1b0e:	80 40       	sbci	r24, 0x00	; 0
    1b10:	e1 f7       	brne	.-8      	; 0x1b0a <CReleaseKeyMessageHandle+0x7c>
    1b12:	00 c0       	rjmp	.+0      	; 0x1b14 <CReleaseKeyMessageHandle+0x86>
    1b14:	00 00       	nop
    1b16:	21 c0       	rjmp	.+66     	; 0x1b5a <CReleaseKeyMessageHandle+0xcc>
				_delay_ms(50);
			else if(g_stStatusCmd.uiXRate<7)
    1b18:	87 30       	cpi	r24, 0x07	; 7
    1b1a:	50 f4       	brcc	.+20     	; 0x1b30 <CReleaseKeyMessageHandle+0xa2>
    1b1c:	9f ef       	ldi	r25, 0xFF	; 255
    1b1e:	23 ef       	ldi	r18, 0xF3	; 243
    1b20:	81 e0       	ldi	r24, 0x01	; 1
    1b22:	91 50       	subi	r25, 0x01	; 1
    1b24:	20 40       	sbci	r18, 0x00	; 0
    1b26:	80 40       	sbci	r24, 0x00	; 0
    1b28:	e1 f7       	brne	.-8      	; 0x1b22 <CReleaseKeyMessageHandle+0x94>
    1b2a:	00 c0       	rjmp	.+0      	; 0x1b2c <CReleaseKeyMessageHandle+0x9e>
    1b2c:	00 00       	nop
    1b2e:	15 c0       	rjmp	.+42     	; 0x1b5a <CReleaseKeyMessageHandle+0xcc>
				_delay_ms(80);
			else if(g_stStatusCmd.uiXRate<10)
    1b30:	8a 30       	cpi	r24, 0x0A	; 10
    1b32:	50 f4       	brcc	.+20     	; 0x1b48 <CReleaseKeyMessageHandle+0xba>
    1b34:	9f ef       	ldi	r25, 0xFF	; 255
    1b36:	21 ee       	ldi	r18, 0xE1	; 225
    1b38:	84 e0       	ldi	r24, 0x04	; 4
    1b3a:	91 50       	subi	r25, 0x01	; 1
    1b3c:	20 40       	sbci	r18, 0x00	; 0
    1b3e:	80 40       	sbci	r24, 0x00	; 0
    1b40:	e1 f7       	brne	.-8      	; 0x1b3a <CReleaseKeyMessageHandle+0xac>
    1b42:	00 c0       	rjmp	.+0      	; 0x1b44 <CReleaseKeyMessageHandle+0xb6>
    1b44:	00 00       	nop
    1b46:	09 c0       	rjmp	.+18     	; 0x1b5a <CReleaseKeyMessageHandle+0xcc>
    1b48:	9f e7       	ldi	r25, 0x7F	; 127
    1b4a:	2b e8       	ldi	r18, 0x8B	; 139
    1b4c:	88 e0       	ldi	r24, 0x08	; 8
    1b4e:	91 50       	subi	r25, 0x01	; 1
    1b50:	20 40       	sbci	r18, 0x00	; 0
    1b52:	80 40       	sbci	r24, 0x00	; 0
    1b54:	e1 f7       	brne	.-8      	; 0x1b4e <CReleaseKeyMessageHandle+0xc0>
    1b56:	00 c0       	rjmp	.+0      	; 0x1b58 <CReleaseKeyMessageHandle+0xca>
    1b58:	00 00       	nop
				_delay_ms(200);
			else
				_delay_ms(350);

			//temporary measure, need solved.
			CAM_SetStopFocus();
    1b5a:	0e 94 27 01 	call	0x24e	; 0x24e <CAM_SetStopFocus>
			g_stStatusCmd.bStartFar = false;
    1b5e:	10 92 ba 03 	sts	0x03BA, r1
			g_stStatusCmd.bStartNear = false;
    1b62:	10 92 bc 03 	sts	0x03BC, r1
    1b66:	9f e7       	ldi	r25, 0x7F	; 127
    1b68:	28 e3       	ldi	r18, 0x38	; 56
    1b6a:	81 e0       	ldi	r24, 0x01	; 1
    1b6c:	91 50       	subi	r25, 0x01	; 1
    1b6e:	20 40       	sbci	r18, 0x00	; 0
    1b70:	80 40       	sbci	r24, 0x00	; 0
    1b72:	e1 f7       	brne	.-8      	; 0x1b6c <CReleaseKeyMessageHandle+0xde>
    1b74:	00 c0       	rjmp	.+0      	; 0x1b76 <CReleaseKeyMessageHandle+0xe8>
    1b76:	00 00       	nop

			_delay_ms(50);
		
		}
		CAM_InqFocusPos();
    1b78:	0e 94 31 05 	call	0xa62	; 0xa62 <CAM_InqFocusPos>
    1b7c:	9f e7       	ldi	r25, 0x7F	; 127
    1b7e:	29 ea       	ldi	r18, 0xA9	; 169
    1b80:	83 e0       	ldi	r24, 0x03	; 3
    1b82:	91 50       	subi	r25, 0x01	; 1
    1b84:	20 40       	sbci	r18, 0x00	; 0
    1b86:	80 40       	sbci	r24, 0x00	; 0
    1b88:	e1 f7       	brne	.-8      	; 0x1b82 <CReleaseKeyMessageHandle+0xf4>
    1b8a:	00 c0       	rjmp	.+0      	; 0x1b8c <CReleaseKeyMessageHandle+0xfe>
    1b8c:	00 00       	nop
		_delay_ms(150);
		GetInquiryResult(&g_stCameraCmd);
    1b8e:	85 e7       	ldi	r24, 0x75	; 117
    1b90:	93 e0       	ldi	r25, 0x03	; 3
    1b92:	0e 94 cf 06 	call	0xd9e	; 0xd9e <GetInquiryResult>
		g_stStatusCmd.uiFocusPos = GetFocusPos();
    1b96:	0e 94 0b 06 	call	0xc16	; 0xc16 <GetFocusPos>
    1b9a:	90 93 b9 03 	sts	0x03B9, r25
    1b9e:	80 93 b8 03 	sts	0x03B8, r24
		if(g_u16FocusEnding != g_stStatusCmd.uiFocusPos)
    1ba2:	20 91 5d 03 	lds	r18, 0x035D
    1ba6:	30 91 5e 03 	lds	r19, 0x035E
    1baa:	82 17       	cp	r24, r18
    1bac:	93 07       	cpc	r25, r19
    1bae:	89 f0       	breq	.+34     	; 0x1bd2 <CReleaseKeyMessageHandle+0x144>
		{
			g_u16FocusEnding = g_stStatusCmd.uiFocusPos;
    1bb0:	90 93 5e 03 	sts	0x035E, r25
    1bb4:	80 93 5d 03 	sts	0x035D, r24
			g_u8FocusGetMaxCount = 0;
    1bb8:	10 92 5c 03 	sts	0x035C, r1
			if(g_stStatusCmd.uiDisplayFlag&_DISPLAY_FOCUS_END)
    1bbc:	80 91 bf 03 	lds	r24, 0x03BF
    1bc0:	86 ff       	sbrs	r24, 6
    1bc2:	18 c0       	rjmp	.+48     	; 0x1bf4 <CReleaseKeyMessageHandle+0x166>
			{
				g_stStatusCmd.uiDisplayFlag &= ~_DISPLAY_FOCUS_END;
    1bc4:	8f 7b       	andi	r24, 0xBF	; 191
    1bc6:	80 93 bf 03 	sts	0x03BF, r24
				g_bTitle2Change = true;
    1bca:	81 e0       	ldi	r24, 0x01	; 1
    1bcc:	80 93 71 03 	sts	0x0371, r24
    1bd0:	11 c0       	rjmp	.+34     	; 0x1bf4 <CReleaseKeyMessageHandle+0x166>
			}

		}
		else
		{
			g_u8FocusGetMaxCount++;
    1bd2:	80 91 5c 03 	lds	r24, 0x035C
    1bd6:	8f 5f       	subi	r24, 0xFF	; 255
    1bd8:	80 93 5c 03 	sts	0x035C, r24
			if(g_u8FocusGetMaxCount > 1)
    1bdc:	82 30       	cpi	r24, 0x02	; 2
    1bde:	50 f0       	brcs	.+20     	; 0x1bf4 <CReleaseKeyMessageHandle+0x166>
			{
				if(!(g_stStatusCmd.uiDisplayFlag&_DISPLAY_FOCUS_END))
    1be0:	80 91 bf 03 	lds	r24, 0x03BF
    1be4:	86 fd       	sbrc	r24, 6
    1be6:	06 c0       	rjmp	.+12     	; 0x1bf4 <CReleaseKeyMessageHandle+0x166>
				{
					g_stStatusCmd.uiDisplayFlag |= _DISPLAY_FOCUS_END;
    1be8:	80 64       	ori	r24, 0x40	; 64
    1bea:	80 93 bf 03 	sts	0x03BF, r24
					g_bTitle2Change = true;
    1bee:	81 e0       	ldi	r24, 0x01	; 1
    1bf0:	80 93 71 03 	sts	0x0371, r24

uint8_t GetMfRateByPos(void)
{
	uint8_t uiMF = 0;

	uiMF =g_stStatusCmd.uiFocusPos/_FOCUS_POS_MIN; //(g_stStatusCmd.uiFocusPos -_FOCUS_POS_MIN) /((uiFocusLimitTable[g_stStatusCmd.uiXRate] -_FOCUS_POS_MIN) /7) + 1;
    1bf4:	80 91 b9 03 	lds	r24, 0x03B9
    1bf8:	82 95       	swap	r24
    1bfa:	8f 70       	andi	r24, 0x0F	; 15
					g_stStatusCmd.uiDisplayFlag |= _DISPLAY_FOCUS_END;
					g_bTitle2Change = true;
				}
			}
		}
		g_stStatusCmd.uiMF = GetMfRateByPos();
    1bfc:	80 93 ae 03 	sts	0x03AE, r24
		
		if(g_stStatusCmd.uiMF != g_stStatusCmd.uiMFShow)
    1c00:	90 91 af 03 	lds	r25, 0x03AF
    1c04:	98 17       	cp	r25, r24
    1c06:	21 f0       	breq	.+8      	; 0x1c10 <CReleaseKeyMessageHandle+0x182>
			g_bTitle1Change = true;
    1c08:	81 e0       	ldi	r24, 0x01	; 1
    1c0a:	80 93 72 03 	sts	0x0372, r24
    1c0e:	08 95       	ret
		else
			g_bTitle1Change = false;
    1c10:	10 92 72 03 	sts	0x0372, r1
    1c14:	08 95       	ret
	}
	else if (_ZOOM_MODE_STEPLESS == g_stStatusCmd.ZoomMode && (true == g_stStatusCmd.bStartZoomIn|| true == g_stStatusCmd.bStartZoomOut))
    1c16:	20 91 c5 03 	lds	r18, 0x03C5
    1c1a:	21 30       	cpi	r18, 0x01	; 1
    1c1c:	09 f0       	breq	.+2      	; 0x1c20 <CReleaseKeyMessageHandle+0x192>
    1c1e:	6c c0       	rjmp	.+216    	; 0x1cf8 <CReleaseKeyMessageHandle+0x26a>
    1c20:	40 91 bd 03 	lds	r20, 0x03BD
    1c24:	41 11       	cpse	r20, r1
    1c26:	05 c0       	rjmp	.+10     	; 0x1c32 <CReleaseKeyMessageHandle+0x1a4>
    1c28:	20 91 bb 03 	lds	r18, 0x03BB
    1c2c:	22 23       	and	r18, r18
    1c2e:	09 f4       	brne	.+2      	; 0x1c32 <CReleaseKeyMessageHandle+0x1a4>
    1c30:	63 c0       	rjmp	.+198    	; 0x1cf8 <CReleaseKeyMessageHandle+0x26a>
	{
		

		if(bDoZoomAndFocusStop||(g_stStatusCmd.uiZoomPos >= uiZoomRatioTable[g_stStatusCmd.uiModeID%_MAX_ZOOM_PARA_NUM][_MAX_RATE-1]&&true == g_stStatusCmd.bStartZoomIn))
    1c32:	31 11       	cpse	r19, r1
    1c34:	18 c0       	rjmp	.+48     	; 0x1c66 <CReleaseKeyMessageHandle+0x1d8>
    1c36:	20 91 a5 03 	lds	r18, 0x03A5
    1c3a:	82 2f       	mov	r24, r18
    1c3c:	81 70       	andi	r24, 0x01	; 1
    1c3e:	90 e0       	ldi	r25, 0x00	; 0
    1c40:	28 e6       	ldi	r18, 0x68	; 104
    1c42:	28 9f       	mul	r18, r24
    1c44:	f0 01       	movw	r30, r0
    1c46:	29 9f       	mul	r18, r25
    1c48:	f0 0d       	add	r31, r0
    1c4a:	11 24       	eor	r1, r1
    1c4c:	e5 52       	subi	r30, 0x25	; 37
    1c4e:	fd 4f       	sbci	r31, 0xFD	; 253
    1c50:	20 91 b6 03 	lds	r18, 0x03B6
    1c54:	30 91 b7 03 	lds	r19, 0x03B7
    1c58:	80 81       	ld	r24, Z
    1c5a:	91 81       	ldd	r25, Z+1	; 0x01
    1c5c:	28 17       	cp	r18, r24
    1c5e:	39 07       	cpc	r19, r25
    1c60:	40 f1       	brcs	.+80     	; 0x1cb2 <CReleaseKeyMessageHandle+0x224>
    1c62:	44 23       	and	r20, r20
    1c64:	31 f1       	breq	.+76     	; 0x1cb2 <CReleaseKeyMessageHandle+0x224>
		{
			#ifdef _DEBUG_PRINTF
			MyPrintf("Stop Zoom\r\n");
			#endif
			if(g_stStatusCmd.uiModeID == _CAM_480)
    1c66:	80 91 a5 03 	lds	r24, 0x03A5
    1c6a:	81 11       	cpse	r24, r1
    1c6c:	0a c0       	rjmp	.+20     	; 0x1c82 <CReleaseKeyMessageHandle+0x1f4>
    1c6e:	9f e7       	ldi	r25, 0x7F	; 127
    1c70:	28 e3       	ldi	r18, 0x38	; 56
    1c72:	81 e0       	ldi	r24, 0x01	; 1
    1c74:	91 50       	subi	r25, 0x01	; 1
    1c76:	20 40       	sbci	r18, 0x00	; 0
    1c78:	80 40       	sbci	r24, 0x00	; 0
    1c7a:	e1 f7       	brne	.-8      	; 0x1c74 <CReleaseKeyMessageHandle+0x1e6>
    1c7c:	00 c0       	rjmp	.+0      	; 0x1c7e <CReleaseKeyMessageHandle+0x1f0>
    1c7e:	00 00       	nop
    1c80:	09 c0       	rjmp	.+18     	; 0x1c94 <CReleaseKeyMessageHandle+0x206>
    1c82:	9f e7       	ldi	r25, 0x7F	; 127
    1c84:	29 ea       	ldi	r18, 0xA9	; 169
    1c86:	83 e0       	ldi	r24, 0x03	; 3
    1c88:	91 50       	subi	r25, 0x01	; 1
    1c8a:	20 40       	sbci	r18, 0x00	; 0
    1c8c:	80 40       	sbci	r24, 0x00	; 0
    1c8e:	e1 f7       	brne	.-8      	; 0x1c88 <CReleaseKeyMessageHandle+0x1fa>
    1c90:	00 c0       	rjmp	.+0      	; 0x1c92 <CReleaseKeyMessageHandle+0x204>
    1c92:	00 00       	nop
				_delay_ms(50);
			else
				_delay_ms(150);

			CAM_SetZoomStop();
    1c94:	0e 94 67 00 	call	0xce	; 0xce <CAM_SetZoomStop>
			g_stStatusCmd.bStartZoomIn= false;
    1c98:	10 92 bd 03 	sts	0x03BD, r1
			g_stStatusCmd.bStartZoomOut= false;
    1c9c:	10 92 bb 03 	sts	0x03BB, r1
    1ca0:	9f e7       	ldi	r25, 0x7F	; 127
    1ca2:	28 e3       	ldi	r18, 0x38	; 56
    1ca4:	81 e0       	ldi	r24, 0x01	; 1
    1ca6:	91 50       	subi	r25, 0x01	; 1
    1ca8:	20 40       	sbci	r18, 0x00	; 0
    1caa:	80 40       	sbci	r24, 0x00	; 0
    1cac:	e1 f7       	brne	.-8      	; 0x1ca6 <CReleaseKeyMessageHandle+0x218>
    1cae:	00 c0       	rjmp	.+0      	; 0x1cb0 <CReleaseKeyMessageHandle+0x222>
    1cb0:	00 00       	nop

			_delay_ms(50);
		}
		CAM_InqZoomPos();
    1cb2:	0e 94 15 05 	call	0xa2a	; 0xa2a <CAM_InqZoomPos>
    1cb6:	9f e7       	ldi	r25, 0x7F	; 127
    1cb8:	29 ea       	ldi	r18, 0xA9	; 169
    1cba:	83 e0       	ldi	r24, 0x03	; 3
    1cbc:	91 50       	subi	r25, 0x01	; 1
    1cbe:	20 40       	sbci	r18, 0x00	; 0
    1cc0:	80 40       	sbci	r24, 0x00	; 0
    1cc2:	e1 f7       	brne	.-8      	; 0x1cbc <CReleaseKeyMessageHandle+0x22e>
    1cc4:	00 c0       	rjmp	.+0      	; 0x1cc6 <CReleaseKeyMessageHandle+0x238>
    1cc6:	00 00       	nop
		_delay_ms(150);
		GetInquiryResult(&g_stCameraCmd);
    1cc8:	85 e7       	ldi	r24, 0x75	; 117
    1cca:	93 e0       	ldi	r25, 0x03	; 3
    1ccc:	0e 94 cf 06 	call	0xd9e	; 0xd9e <GetInquiryResult>
		g_stStatusCmd.uiZoomPos = GetZoomPos();
    1cd0:	0e 94 e6 05 	call	0xbcc	; 0xbcc <GetZoomPos>
    1cd4:	90 93 b7 03 	sts	0x03B7, r25
    1cd8:	80 93 b6 03 	sts	0x03B6, r24
		g_stStatusCmd.uiXRate = GetXRateByPos();
    1cdc:	0e 94 58 0a 	call	0x14b0	; 0x14b0 <GetXRateByPos>
    1ce0:	80 93 ac 03 	sts	0x03AC, r24
		
		if(g_stStatusCmd.uiXRate != g_stStatusCmd.uiXRateShow)
    1ce4:	90 91 ad 03 	lds	r25, 0x03AD
    1ce8:	89 17       	cp	r24, r25
    1cea:	21 f0       	breq	.+8      	; 0x1cf4 <CReleaseKeyMessageHandle+0x266>
			g_bTitle1Change = true;
    1cec:	81 e0       	ldi	r24, 0x01	; 1
    1cee:	80 93 72 03 	sts	0x0372, r24
    1cf2:	08 95       	ret
		else
			g_bTitle1Change = false;
    1cf4:	10 92 72 03 	sts	0x0372, r1
    1cf8:	08 95       	ret

00001cfa <WhiteBalanceHandle>:

	return;
}
void WhiteBalanceHandle(void)
{
	switch(g_stStatusCmd.WBMode)
    1cfa:	80 91 c7 03 	lds	r24, 0x03C7
    1cfe:	81 30       	cpi	r24, 0x01	; 1
    1d00:	49 f5       	brne	.+82     	; 0x1d54 <WhiteBalanceHandle+0x5a>
	{
		case _WB_MODE_AUTO:
			//Inq R Gain
			CAM_InqRGain();
    1d02:	0e 94 4d 05 	call	0xa9a	; 0xa9a <CAM_InqRGain>
    1d06:	2f e7       	ldi	r18, 0x7F	; 127
    1d08:	88 e3       	ldi	r24, 0x38	; 56
    1d0a:	91 e0       	ldi	r25, 0x01	; 1
    1d0c:	21 50       	subi	r18, 0x01	; 1
    1d0e:	80 40       	sbci	r24, 0x00	; 0
    1d10:	90 40       	sbci	r25, 0x00	; 0
    1d12:	e1 f7       	brne	.-8      	; 0x1d0c <WhiteBalanceHandle+0x12>
    1d14:	00 c0       	rjmp	.+0      	; 0x1d16 <WhiteBalanceHandle+0x1c>
    1d16:	00 00       	nop
			_delay_ms(50);
			//USART_GetCommand(g_stCameraCmd.InquiryResult,&g_stCameraCmd.InquiryResultLength);
			GetInquiryResult(&g_stCameraCmd);
    1d18:	85 e7       	ldi	r24, 0x75	; 117
    1d1a:	93 e0       	ldi	r25, 0x03	; 3
    1d1c:	0e 94 cf 06 	call	0xd9e	; 0xd9e <GetInquiryResult>
			g_stStatusCmd.uiRGain = GetRGain();
    1d20:	0e 94 3a 06 	call	0xc74	; 0xc74 <GetRGain>
    1d24:	80 93 a8 03 	sts	0x03A8, r24
			
			//Inq B Gain
			CAM_InqBGain();
    1d28:	0e 94 69 05 	call	0xad2	; 0xad2 <CAM_InqBGain>
    1d2c:	2f e7       	ldi	r18, 0x7F	; 127
    1d2e:	88 e3       	ldi	r24, 0x38	; 56
    1d30:	91 e0       	ldi	r25, 0x01	; 1
    1d32:	21 50       	subi	r18, 0x01	; 1
    1d34:	80 40       	sbci	r24, 0x00	; 0
    1d36:	90 40       	sbci	r25, 0x00	; 0
    1d38:	e1 f7       	brne	.-8      	; 0x1d32 <WhiteBalanceHandle+0x38>
    1d3a:	00 c0       	rjmp	.+0      	; 0x1d3c <WhiteBalanceHandle+0x42>
    1d3c:	00 00       	nop
			_delay_ms(50);
			//USART_GetCommand(g_stCameraCmd.InquiryResult,&g_stCameraCmd.InquiryResultLength);
			GetInquiryResult(&g_stCameraCmd);
    1d3e:	85 e7       	ldi	r24, 0x75	; 117
    1d40:	93 e0       	ldi	r25, 0x03	; 3
    1d42:	0e 94 cf 06 	call	0xd9e	; 0xd9e <GetInquiryResult>
			g_stStatusCmd.uiBGain = GetBGain();
    1d46:	0e 94 4a 06 	call	0xc94	; 0xc94 <GetBGain>
    1d4a:	80 93 aa 03 	sts	0x03AA, r24


			//show RB
			g_bTitle2Change = true;
    1d4e:	81 e0       	ldi	r24, 0x01	; 1
    1d50:	80 93 71 03 	sts	0x0371, r24
    1d54:	08 95       	ret

00001d56 <SetWhiteModeNormal>:
		_delay_ms(100);
		CAM_SetSharpnessDefault();
	}
	#else
	{
		CAM_SetPicEffectOff();
    1d56:	0e 94 d2 02 	call	0x5a4	; 0x5a4 <CAM_SetPicEffectOff>
    1d5a:	2f ef       	ldi	r18, 0xFF	; 255
    1d5c:	80 e7       	ldi	r24, 0x70	; 112
    1d5e:	92 e0       	ldi	r25, 0x02	; 2
    1d60:	21 50       	subi	r18, 0x01	; 1
    1d62:	80 40       	sbci	r24, 0x00	; 0
    1d64:	90 40       	sbci	r25, 0x00	; 0
    1d66:	e1 f7       	brne	.-8      	; 0x1d60 <SetWhiteModeNormal+0xa>
    1d68:	00 c0       	rjmp	.+0      	; 0x1d6a <SetWhiteModeNormal+0x14>
    1d6a:	00 00       	nop
		_delay_ms(100);
		CAM_SetApertureReset();
    1d6c:	0e 94 57 02 	call	0x4ae	; 0x4ae <CAM_SetApertureReset>
		
	}
	#endif
	g_stStatusCmd.WhiteMode = _WHITE_MODE_NORMAL;
    1d70:	10 92 c3 03 	sts	0x03C3, r1
    1d74:	08 95       	ret

00001d76 <SetWhiteModeFA>:
		CAM_SetSharpnessDirect();
		_delay_ms(100);
	}
	#else
	{
		CAM_SetApertureDirect();
    1d76:	0e 94 73 02 	call	0x4e6	; 0x4e6 <CAM_SetApertureDirect>

	}
	#endif
	g_stStatusCmd.WhiteMode = _WHITE_MODE_FA;
    1d7a:	81 e0       	ldi	r24, 0x01	; 1
    1d7c:	80 93 c3 03 	sts	0x03C3, r24
	#if(_WHITE_SET_DISPLAY == 1)
	g_stStatusCmd.bIsDisplay = true;
    1d80:	80 93 be 03 	sts	0x03BE, r24
	
	#endif
	g_stStatusCmd.uiDisplayFlag |= _DISPLAY_WHITE;
	g_stStatusCmd.uiDisplayFlag |= _DISPLAY_ZOOM;
    1d84:	ef eb       	ldi	r30, 0xBF	; 191
    1d86:	f3 e0       	ldi	r31, 0x03	; 3
    1d88:	90 81       	ld	r25, Z
    1d8a:	93 60       	ori	r25, 0x03	; 3
    1d8c:	90 83       	st	Z, r25
	g_bTitle1Change = true;
    1d8e:	80 93 72 03 	sts	0x0372, r24
    1d92:	08 95       	ret

00001d94 <SetWhiteModeFB>:
		CAM_SetVideoBW();
		_delay_ms(100);
	}
	#else
	{
		CAM_SetPicEffectBW();
    1d94:	0e 94 ee 02 	call	0x5dc	; 0x5dc <CAM_SetPicEffectBW>
	}
	#endif
	g_stStatusCmd.WhiteMode = _WHITE_MODE_FB;
    1d98:	82 e0       	ldi	r24, 0x02	; 2
    1d9a:	80 93 c3 03 	sts	0x03C3, r24
	#if(_WHITE_SET_DISPLAY == 1)
	g_stStatusCmd.bIsDisplay = true;
    1d9e:	81 e0       	ldi	r24, 0x01	; 1
    1da0:	80 93 be 03 	sts	0x03BE, r24
	
	#endif
	g_stStatusCmd.uiDisplayFlag |= _DISPLAY_WHITE;
	g_stStatusCmd.uiDisplayFlag |= _DISPLAY_ZOOM;
    1da4:	ef eb       	ldi	r30, 0xBF	; 191
    1da6:	f3 e0       	ldi	r31, 0x03	; 3
    1da8:	90 81       	ld	r25, Z
    1daa:	93 60       	ori	r25, 0x03	; 3
    1dac:	90 83       	st	Z, r25
	g_bTitle1Change = true;
    1dae:	80 93 72 03 	sts	0x0372, r24
    1db2:	08 95       	ret

00001db4 <SetFilterG1>:
}
void SetFilterG1(void)
{

//RGain193
	CAM_SetRGainDirect(_G1_R_GAIN);
    1db4:	81 ec       	ldi	r24, 0xC1	; 193
    1db6:	0e 94 0d 02 	call	0x41a	; 0x41a <CAM_SetRGainDirect>
	g_stStatusCmd.GreenMode = _GREEN_MODE_G1;
    1dba:	81 e0       	ldi	r24, 0x01	; 1
    1dbc:	80 93 c4 03 	sts	0x03C4, r24
	#if(_FILTER_SET_DISPLAY == 1)
	g_stStatusCmd.bIsDisplay = true;
    1dc0:	80 93 be 03 	sts	0x03BE, r24
	
	#endif
	g_stStatusCmd.uiDisplayFlag |= _DISPLAY_FILTER;
	g_stStatusCmd.uiDisplayFlag |= _DISPLAY_ZOOM;
    1dc4:	ef eb       	ldi	r30, 0xBF	; 191
    1dc6:	f3 e0       	ldi	r31, 0x03	; 3
    1dc8:	90 81       	ld	r25, Z
    1dca:	95 60       	ori	r25, 0x05	; 5
    1dcc:	90 83       	st	Z, r25
	g_bTitle1Change = true;
    1dce:	80 93 72 03 	sts	0x0372, r24
	if(g_stStatusCmd.uiModeID == _CAM_7500)
    1dd2:	80 91 a5 03 	lds	r24, 0x03A5
    1dd6:	85 30       	cpi	r24, 0x05	; 5
    1dd8:	49 f4       	brne	.+18     	; 0x1dec <SetFilterG1+0x38>
    1dda:	2f ef       	ldi	r18, 0xFF	; 255
    1ddc:	80 e7       	ldi	r24, 0x70	; 112
    1dde:	92 e0       	ldi	r25, 0x02	; 2
    1de0:	21 50       	subi	r18, 0x01	; 1
    1de2:	80 40       	sbci	r24, 0x00	; 0
    1de4:	90 40       	sbci	r25, 0x00	; 0
    1de6:	e1 f7       	brne	.-8      	; 0x1de0 <SetFilterG1+0x2c>
    1de8:	00 c0       	rjmp	.+0      	; 0x1dea <SetFilterG1+0x36>
    1dea:	00 00       	nop
    1dec:	08 95       	ret

00001dee <SetFilterG2>:
		_delay_ms(100);
}
void SetFilterG2(void)
{
//RGain168
	CAM_SetRGainDirect(_G2_R_GAIN);
    1dee:	88 ea       	ldi	r24, 0xA8	; 168
    1df0:	0e 94 0d 02 	call	0x41a	; 0x41a <CAM_SetRGainDirect>
	g_stStatusCmd.GreenMode = _GREEN_MODE_G2;
    1df4:	82 e0       	ldi	r24, 0x02	; 2
    1df6:	80 93 c4 03 	sts	0x03C4, r24
	#if(_FILTER_SET_DISPLAY == 1)
	g_stStatusCmd.bIsDisplay = true;
    1dfa:	81 e0       	ldi	r24, 0x01	; 1
    1dfc:	80 93 be 03 	sts	0x03BE, r24
	
	#endif
	g_stStatusCmd.uiDisplayFlag |= _DISPLAY_FILTER;
	g_stStatusCmd.uiDisplayFlag |= _DISPLAY_ZOOM;
    1e00:	ef eb       	ldi	r30, 0xBF	; 191
    1e02:	f3 e0       	ldi	r31, 0x03	; 3
    1e04:	90 81       	ld	r25, Z
    1e06:	95 60       	ori	r25, 0x05	; 5
    1e08:	90 83       	st	Z, r25
	g_bTitle1Change = true;
    1e0a:	80 93 72 03 	sts	0x0372, r24
	if(g_stStatusCmd.uiModeID == _CAM_7500)
    1e0e:	80 91 a5 03 	lds	r24, 0x03A5
    1e12:	85 30       	cpi	r24, 0x05	; 5
    1e14:	49 f4       	brne	.+18     	; 0x1e28 <SetFilterG2+0x3a>
    1e16:	2f ef       	ldi	r18, 0xFF	; 255
    1e18:	80 e7       	ldi	r24, 0x70	; 112
    1e1a:	92 e0       	ldi	r25, 0x02	; 2
    1e1c:	21 50       	subi	r18, 0x01	; 1
    1e1e:	80 40       	sbci	r24, 0x00	; 0
    1e20:	90 40       	sbci	r25, 0x00	; 0
    1e22:	e1 f7       	brne	.-8      	; 0x1e1c <SetFilterG2+0x2e>
    1e24:	00 c0       	rjmp	.+0      	; 0x1e26 <SetFilterG2+0x38>
    1e26:	00 00       	nop
    1e28:	08 95       	ret

00001e2a <SetFilterG3>:

}
void SetFilterG3(void)
{
//RGain120
	CAM_SetRGainDirect(_G3_R_GAIN);
    1e2a:	88 e7       	ldi	r24, 0x78	; 120
    1e2c:	0e 94 0d 02 	call	0x41a	; 0x41a <CAM_SetRGainDirect>
	g_stStatusCmd.GreenMode = _GREEN_MODE_G3;
    1e30:	83 e0       	ldi	r24, 0x03	; 3
    1e32:	80 93 c4 03 	sts	0x03C4, r24
	#if(_FILTER_SET_DISPLAY == 1)
	g_stStatusCmd.bIsDisplay = true;
    1e36:	81 e0       	ldi	r24, 0x01	; 1
    1e38:	80 93 be 03 	sts	0x03BE, r24
	
	#endif
	g_stStatusCmd.uiDisplayFlag |= _DISPLAY_FILTER;
	g_stStatusCmd.uiDisplayFlag |= _DISPLAY_ZOOM;
    1e3c:	ef eb       	ldi	r30, 0xBF	; 191
    1e3e:	f3 e0       	ldi	r31, 0x03	; 3
    1e40:	90 81       	ld	r25, Z
    1e42:	95 60       	ori	r25, 0x05	; 5
    1e44:	90 83       	st	Z, r25
	g_bTitle1Change = true;
    1e46:	80 93 72 03 	sts	0x0372, r24
	if(g_stStatusCmd.uiModeID == _CAM_7500)
    1e4a:	80 91 a5 03 	lds	r24, 0x03A5
    1e4e:	85 30       	cpi	r24, 0x05	; 5
    1e50:	49 f4       	brne	.+18     	; 0x1e64 <SetFilterG3+0x3a>
    1e52:	2f ef       	ldi	r18, 0xFF	; 255
    1e54:	80 e7       	ldi	r24, 0x70	; 112
    1e56:	92 e0       	ldi	r25, 0x02	; 2
    1e58:	21 50       	subi	r18, 0x01	; 1
    1e5a:	80 40       	sbci	r24, 0x00	; 0
    1e5c:	90 40       	sbci	r25, 0x00	; 0
    1e5e:	e1 f7       	brne	.-8      	; 0x1e58 <SetFilterG3+0x2e>
    1e60:	00 c0       	rjmp	.+0      	; 0x1e62 <SetFilterG3+0x38>
    1e62:	00 00       	nop
    1e64:	08 95       	ret

00001e66 <SaveRBGainValue>:
		_delay_ms(100);

}
void SaveRBGainValue(void)
{
    1e66:	0f 93       	push	r16
    1e68:	1f 93       	push	r17
    1e6a:	cf 93       	push	r28
    1e6c:	df 93       	push	r29
    1e6e:	cd b7       	in	r28, 0x3d	; 61
    1e70:	de b7       	in	r29, 0x3e	; 62
    1e72:	64 97       	sbiw	r28, 0x14	; 20
    1e74:	0f b6       	in	r0, 0x3f	; 63
    1e76:	f8 94       	cli
    1e78:	de bf       	out	0x3e, r29	; 62
    1e7a:	0f be       	out	0x3f, r0	; 63
    1e7c:	cd bf       	out	0x3d, r28	; 61
	#if(_CCD_TYPE_CODE == _CCD_7500)
	uint8_t tSaving[10] = {'S','A','V','E','D',0x20,0x20,0x20,0x20,0x20};//savED
	uint8_t tSpace[10] = {0x20,0x20,0x20,0x20,0x20,0x20,0x20,0x20,0x20,0x20};//space
	#else
	uint8_t tSaving[10] = {0x12,0x00,0x15,0x04,0x03,0x1b,0x1b,0x1b,0x1b,0x1b};//savED
    1e7e:	8a e0       	ldi	r24, 0x0A	; 10
    1e80:	e7 e5       	ldi	r30, 0x57	; 87
    1e82:	f2 e0       	ldi	r31, 0x02	; 2
    1e84:	de 01       	movw	r26, r28
    1e86:	11 96       	adiw	r26, 0x01	; 1
    1e88:	01 90       	ld	r0, Z+
    1e8a:	0d 92       	st	X+, r0
    1e8c:	8a 95       	dec	r24
    1e8e:	e1 f7       	brne	.-8      	; 0x1e88 <SaveRBGainValue+0x22>
	uint8_t tSpace[10] = {0x1b,0x1b,0x1b,0x1b,0x1b,0x1b,0x1b,0x1b,0x1b,0x1b};//space
    1e90:	8a e0       	ldi	r24, 0x0A	; 10
    1e92:	e1 e6       	ldi	r30, 0x61	; 97
    1e94:	f2 e0       	ldi	r31, 0x02	; 2
    1e96:	de 01       	movw	r26, r28
    1e98:	1b 96       	adiw	r26, 0x0b	; 11
    1e9a:	01 90       	ld	r0, Z+
    1e9c:	0d 92       	st	X+, r0
    1e9e:	8a 95       	dec	r24
    1ea0:	e1 f7       	brne	.-8      	; 0x1e9a <SaveRBGainValue+0x34>
	#endif


	CAM_SetWBMaunal();
    1ea2:	0e 94 f1 01 	call	0x3e2	; 0x3e2 <CAM_SetWBMaunal>
	g_stStatusCmd.WBMode = _WB_MODE_NORMAL;
    1ea6:	10 92 c7 03 	sts	0x03C7, r1
	CAM_SetRGainDirect(g_stStatusCmd.uiRGain);
    1eaa:	08 ea       	ldi	r16, 0xA8	; 168
    1eac:	13 e0       	ldi	r17, 0x03	; 3
    1eae:	f8 01       	movw	r30, r16
    1eb0:	80 81       	ld	r24, Z
    1eb2:	0e 94 0d 02 	call	0x41a	; 0x41a <CAM_SetRGainDirect>
	eeprom_write_byte((uint8_t *)0x00,g_stStatusCmd.uiRGain);
    1eb6:	f8 01       	movw	r30, r16
    1eb8:	60 81       	ld	r22, Z
    1eba:	80 e0       	ldi	r24, 0x00	; 0
    1ebc:	90 e0       	ldi	r25, 0x00	; 0
    1ebe:	0e 94 9a 18 	call	0x3134	; 0x3134 <__eewr_byte_m168pa>
    1ec2:	ff ef       	ldi	r31, 0xFF	; 255
    1ec4:	21 ee       	ldi	r18, 0xE1	; 225
    1ec6:	84 e0       	ldi	r24, 0x04	; 4
    1ec8:	f1 50       	subi	r31, 0x01	; 1
    1eca:	20 40       	sbci	r18, 0x00	; 0
    1ecc:	80 40       	sbci	r24, 0x00	; 0
    1ece:	e1 f7       	brne	.-8      	; 0x1ec8 <SaveRBGainValue+0x62>
    1ed0:	00 c0       	rjmp	.+0      	; 0x1ed2 <SaveRBGainValue+0x6c>
    1ed2:	00 00       	nop
	_delay_ms(200);
	CAM_SetBGainDirect(g_stStatusCmd.uiBGain);
    1ed4:	0a ea       	ldi	r16, 0xAA	; 170
    1ed6:	13 e0       	ldi	r17, 0x03	; 3
    1ed8:	f8 01       	movw	r30, r16
    1eda:	80 81       	ld	r24, Z
    1edc:	0e 94 32 02 	call	0x464	; 0x464 <CAM_SetBGainDirect>
	eeprom_write_byte((uint8_t *)0x01,g_stStatusCmd.uiBGain);
    1ee0:	f8 01       	movw	r30, r16
    1ee2:	60 81       	ld	r22, Z
    1ee4:	81 e0       	ldi	r24, 0x01	; 1
    1ee6:	90 e0       	ldi	r25, 0x00	; 0
    1ee8:	0e 94 9a 18 	call	0x3134	; 0x3134 <__eewr_byte_m168pa>
	//g_bTitle1Change = true;
	//g_bTitle2Change = true;
	#if(_CCD_TYPE_CODE != _CCD_7500)
	CAM_SetTitleSet2(g_stStatusCmd.titleDis.uiTitleVPos, tSpace);
    1eec:	00 eb       	ldi	r16, 0xB0	; 176
    1eee:	13 e0       	ldi	r17, 0x03	; 3
    1ef0:	be 01       	movw	r22, r28
    1ef2:	65 5f       	subi	r22, 0xF5	; 245
    1ef4:	7f 4f       	sbci	r23, 0xFF	; 255
    1ef6:	f8 01       	movw	r30, r16
    1ef8:	80 81       	ld	r24, Z
    1efa:	0e 94 dd 03 	call	0x7ba	; 0x7ba <CAM_SetTitleSet2>
	CAM_SetTitleSet3(g_stStatusCmd.titleDis.uiTitleVPos, tSpace);
    1efe:	be 01       	movw	r22, r28
    1f00:	65 5f       	subi	r22, 0xF5	; 245
    1f02:	7f 4f       	sbci	r23, 0xFF	; 255
    1f04:	f8 01       	movw	r30, r16
    1f06:	80 81       	ld	r24, Z
    1f08:	0e 94 31 04 	call	0x862	; 0x862 <CAM_SetTitleSet3>
    1f0c:	ff ef       	ldi	r31, 0xFF	; 255
    1f0e:	21 ee       	ldi	r18, 0xE1	; 225
    1f10:	84 e0       	ldi	r24, 0x04	; 4
    1f12:	f1 50       	subi	r31, 0x01	; 1
    1f14:	20 40       	sbci	r18, 0x00	; 0
    1f16:	80 40       	sbci	r24, 0x00	; 0
    1f18:	e1 f7       	brne	.-8      	; 0x1f12 <SaveRBGainValue+0xac>
    1f1a:	00 c0       	rjmp	.+0      	; 0x1f1c <SaveRBGainValue+0xb6>
    1f1c:	00 00       	nop
	_delay_ms(200);
	
	CAM_SetCustomSet();
    1f1e:	0e 94 7a 03 	call	0x6f4	; 0x6f4 <CAM_SetCustomSet>
	if(g_stStatusCmd.uiModeID == _CAM_480)
    1f22:	80 91 a5 03 	lds	r24, 0x03A5
    1f26:	81 11       	cpse	r24, r1
    1f28:	0a c0       	rjmp	.+20     	; 0x1f3e <SaveRBGainValue+0xd8>
    1f2a:	9f ef       	ldi	r25, 0xFF	; 255
    1f2c:	e5 ee       	ldi	r30, 0xE5	; 229
    1f2e:	fa ea       	ldi	r31, 0xAA	; 170
    1f30:	91 50       	subi	r25, 0x01	; 1
    1f32:	e0 40       	sbci	r30, 0x00	; 0
    1f34:	f0 40       	sbci	r31, 0x00	; 0
    1f36:	e1 f7       	brne	.-8      	; 0x1f30 <SaveRBGainValue+0xca>
    1f38:	00 c0       	rjmp	.+0      	; 0x1f3a <SaveRBGainValue+0xd4>
    1f3a:	00 00       	nop
    1f3c:	09 c0       	rjmp	.+18     	; 0x1f50 <SaveRBGainValue+0xea>
    1f3e:	2f ef       	ldi	r18, 0xFF	; 255
    1f40:	83 ed       	ldi	r24, 0xD3	; 211
    1f42:	90 e3       	ldi	r25, 0x30	; 48
    1f44:	21 50       	subi	r18, 0x01	; 1
    1f46:	80 40       	sbci	r24, 0x00	; 0
    1f48:	90 40       	sbci	r25, 0x00	; 0
    1f4a:	e1 f7       	brne	.-8      	; 0x1f44 <SaveRBGainValue+0xde>
    1f4c:	00 c0       	rjmp	.+0      	; 0x1f4e <SaveRBGainValue+0xe8>
    1f4e:	00 00       	nop
		_delay_ms(7000);
	else
		_delay_ms(2000);
	
	CAM_SetTitleSet2(g_stStatusCmd.titleDis.uiTitleVPos, tSaving);
    1f50:	be 01       	movw	r22, r28
    1f52:	6f 5f       	subi	r22, 0xFF	; 255
    1f54:	7f 4f       	sbci	r23, 0xFF	; 255
    1f56:	80 91 b0 03 	lds	r24, 0x03B0
    1f5a:	0e 94 dd 03 	call	0x7ba	; 0x7ba <CAM_SetTitleSet2>
    1f5e:	ef ef       	ldi	r30, 0xFF	; 255
    1f60:	f3 ed       	ldi	r31, 0xD3	; 211
    1f62:	20 e3       	ldi	r18, 0x30	; 48
    1f64:	e1 50       	subi	r30, 0x01	; 1
    1f66:	f0 40       	sbci	r31, 0x00	; 0
    1f68:	20 40       	sbci	r18, 0x00	; 0
    1f6a:	e1 f7       	brne	.-8      	; 0x1f64 <SaveRBGainValue+0xfe>
    1f6c:	00 c0       	rjmp	.+0      	; 0x1f6e <SaveRBGainValue+0x108>
    1f6e:	00 00       	nop
	_delay_ms(2000);
	CAM_SetTitleSet2(g_stStatusCmd.titleDis.uiTitleVPos, tSpace);
    1f70:	be 01       	movw	r22, r28
    1f72:	65 5f       	subi	r22, 0xF5	; 245
    1f74:	7f 4f       	sbci	r23, 0xFF	; 255
    1f76:	80 91 b0 03 	lds	r24, 0x03B0
    1f7a:	0e 94 dd 03 	call	0x7ba	; 0x7ba <CAM_SetTitleSet2>
	#endif
}
    1f7e:	64 96       	adiw	r28, 0x14	; 20
    1f80:	0f b6       	in	r0, 0x3f	; 63
    1f82:	f8 94       	cli
    1f84:	de bf       	out	0x3e, r29	; 62
    1f86:	0f be       	out	0x3f, r0	; 63
    1f88:	cd bf       	out	0x3d, r28	; 61
    1f8a:	df 91       	pop	r29
    1f8c:	cf 91       	pop	r28
    1f8e:	1f 91       	pop	r17
    1f90:	0f 91       	pop	r16
    1f92:	08 95       	ret

00001f94 <ProcessFreeze>:
	return;
}

void ProcessFreeze(void)
{	
	if(g_stStatusCmd.WBMode == _WB_MODE_NORMAL)
    1f94:	80 91 c7 03 	lds	r24, 0x03C7
    1f98:	81 11       	cpse	r24, r1
    1f9a:	17 c0       	rjmp	.+46     	; 0x1fca <ProcessFreeze+0x36>
	{
		if (true == g_stStatusCmd.bIsStill)
    1f9c:	80 91 c1 03 	lds	r24, 0x03C1
    1fa0:	88 23       	and	r24, r24
    1fa2:	29 f0       	breq	.+10     	; 0x1fae <ProcessFreeze+0x1a>
		{
			CAM_SetFreezeOff();
    1fa4:	0e 94 b6 02 	call	0x56c	; 0x56c <CAM_SetFreezeOff>
			g_stStatusCmd.bIsStill = false;
    1fa8:	10 92 c1 03 	sts	0x03C1, r1
    1fac:	0a c0       	rjmp	.+20     	; 0x1fc2 <ProcessFreeze+0x2e>
		} 
		else
		{
			CAM_SetFreezeOn();
    1fae:	0e 94 9a 02 	call	0x534	; 0x534 <CAM_SetFreezeOn>
			g_stStatusCmd.bIsStill = true;
    1fb2:	81 e0       	ldi	r24, 0x01	; 1
    1fb4:	80 93 c1 03 	sts	0x03C1, r24
			g_stStatusCmd.uiDisplayFlag |= _DISPLAY_STILL;
    1fb8:	ef eb       	ldi	r30, 0xBF	; 191
    1fba:	f3 e0       	ldi	r31, 0x03	; 3
    1fbc:	80 81       	ld	r24, Z
    1fbe:	88 60       	ori	r24, 0x08	; 8
    1fc0:	80 83       	st	Z, r24
		}

		g_bTitle1Change = true;
    1fc2:	81 e0       	ldi	r24, 0x01	; 1
    1fc4:	80 93 72 03 	sts	0x0372, r24
    1fc8:	08 95       	ret
	}
	else
	{
		SaveRBGainValue();
    1fca:	0e 94 33 0f 	call	0x1e66	; 0x1e66 <SaveRBGainValue>
    1fce:	08 95       	ret

00001fd0 <UnSaveRBGainValue>:
	_delay_ms(2000);
	CAM_SetTitleSet2(g_stStatusCmd.titleDis.uiTitleVPos, tSpace);
	#endif
}
void UnSaveRBGainValue(void)
{
    1fd0:	cf 93       	push	r28
	CAM_SetWBMaunal();
    1fd2:	0e 94 f1 01 	call	0x3e2	; 0x3e2 <CAM_SetWBMaunal>
	g_stStatusCmd.WBMode = _WB_MODE_NORMAL;
    1fd6:	10 92 c7 03 	sts	0x03C7, r1
	g_stStatusCmd.uiRGain = eeprom_read_byte((uint8_t *)0x00);
    1fda:	80 e0       	ldi	r24, 0x00	; 0
    1fdc:	90 e0       	ldi	r25, 0x00	; 0
    1fde:	0e 94 92 18 	call	0x3124	; 0x3124 <__eerd_byte_m168pa>
    1fe2:	c8 2f       	mov	r28, r24
    1fe4:	80 93 a8 03 	sts	0x03A8, r24
	g_stStatusCmd.uiBGain = eeprom_read_byte((uint8_t *)0x01);
    1fe8:	81 e0       	ldi	r24, 0x01	; 1
    1fea:	90 e0       	ldi	r25, 0x00	; 0
    1fec:	0e 94 92 18 	call	0x3124	; 0x3124 <__eerd_byte_m168pa>
    1ff0:	80 93 aa 03 	sts	0x03AA, r24
	CAM_SetRGainDirect(g_stStatusCmd.uiRGain);
    1ff4:	8c 2f       	mov	r24, r28
    1ff6:	0e 94 0d 02 	call	0x41a	; 0x41a <CAM_SetRGainDirect>
    1ffa:	2f ef       	ldi	r18, 0xFF	; 255
    1ffc:	80 e7       	ldi	r24, 0x70	; 112
    1ffe:	92 e0       	ldi	r25, 0x02	; 2
    2000:	21 50       	subi	r18, 0x01	; 1
    2002:	80 40       	sbci	r24, 0x00	; 0
    2004:	90 40       	sbci	r25, 0x00	; 0
    2006:	e1 f7       	brne	.-8      	; 0x2000 <UnSaveRBGainValue+0x30>
    2008:	00 c0       	rjmp	.+0      	; 0x200a <UnSaveRBGainValue+0x3a>
    200a:	00 00       	nop
	_delay_ms(100);
	CAM_SetBGainDirect(g_stStatusCmd.uiBGain);
    200c:	80 91 aa 03 	lds	r24, 0x03AA
    2010:	0e 94 32 02 	call	0x464	; 0x464 <CAM_SetBGainDirect>
	g_bTitle1Change = true;
    2014:	81 e0       	ldi	r24, 0x01	; 1
    2016:	80 93 72 03 	sts	0x0372, r24
	g_bTitle2Change = true;
    201a:	80 93 71 03 	sts	0x0371, r24
    201e:	2f ef       	ldi	r18, 0xFF	; 255
    2020:	80 e7       	ldi	r24, 0x70	; 112
    2022:	92 e0       	ldi	r25, 0x02	; 2
    2024:	21 50       	subi	r18, 0x01	; 1
    2026:	80 40       	sbci	r24, 0x00	; 0
    2028:	90 40       	sbci	r25, 0x00	; 0
    202a:	e1 f7       	brne	.-8      	; 0x2024 <UnSaveRBGainValue+0x54>
    202c:	00 c0       	rjmp	.+0      	; 0x202e <UnSaveRBGainValue+0x5e>
    202e:	00 00       	nop
	_delay_ms(100);
}
    2030:	cf 91       	pop	r28
    2032:	08 95       	ret

00002034 <ProcessWhite>:
	return;
}

void ProcessWhite(void)
{
	if(g_stStatusCmd.WBMode == _WB_MODE_NORMAL)
    2034:	80 91 c7 03 	lds	r24, 0x03C7
    2038:	81 11       	cpse	r24, r1
    203a:	2a c0       	rjmp	.+84     	; 0x2090 <ProcessWhite+0x5c>
	{
		if (_GREEN_MODE_NORMAL == g_stStatusCmd.GreenMode)
    203c:	80 91 c4 03 	lds	r24, 0x03C4
    2040:	81 11       	cpse	r24, r1
    2042:	11 c0       	rjmp	.+34     	; 0x2066 <ProcessWhite+0x32>
		{
			switch(g_stStatusCmd.WhiteMode)
    2044:	80 91 c3 03 	lds	r24, 0x03C3
    2048:	81 30       	cpi	r24, 0x01	; 1
    204a:	39 f0       	breq	.+14     	; 0x205a <ProcessWhite+0x26>
    204c:	18 f0       	brcs	.+6      	; 0x2054 <ProcessWhite+0x20>
    204e:	82 30       	cpi	r24, 0x02	; 2
    2050:	39 f0       	breq	.+14     	; 0x2060 <ProcessWhite+0x2c>
    2052:	1a c0       	rjmp	.+52     	; 0x2088 <ProcessWhite+0x54>
			{
				case _WHITE_MODE_NORMAL:
				{
					SetWhiteModeFA();
    2054:	0e 94 bb 0e 	call	0x1d76	; 0x1d76 <SetWhiteModeFA>
				}
				break;
    2058:	17 c0       	rjmp	.+46     	; 0x2088 <ProcessWhite+0x54>
				case _WHITE_MODE_FA:
				{
					SetWhiteModeFB();
    205a:	0e 94 ca 0e 	call	0x1d94	; 0x1d94 <SetWhiteModeFB>
				}
				break;
    205e:	14 c0       	rjmp	.+40     	; 0x2088 <ProcessWhite+0x54>
				case _WHITE_MODE_FB:
				{
					SetWhiteModeNormal();
    2060:	0e 94 ab 0e 	call	0x1d56	; 0x1d56 <SetWhiteModeNormal>
				}
				break;
    2064:	11 c0       	rjmp	.+34     	; 0x2088 <ProcessWhite+0x54>
				break;
			}
		}
		else
		{
			CAM_SetRGainDirect(g_stStatusCmd.uiRGainCurrent);
    2066:	80 91 a9 03 	lds	r24, 0x03A9
    206a:	0e 94 0d 02 	call	0x41a	; 0x41a <CAM_SetRGainDirect>
			g_stStatusCmd.GreenMode = _GREEN_MODE_NORMAL;
    206e:	10 92 c4 03 	sts	0x03C4, r1
			g_stStatusCmd.WhiteMode = _WHITE_MODE_NORMAL;
    2072:	10 92 c3 03 	sts	0x03C3, r1
    2076:	2f ef       	ldi	r18, 0xFF	; 255
    2078:	80 e7       	ldi	r24, 0x70	; 112
    207a:	92 e0       	ldi	r25, 0x02	; 2
    207c:	21 50       	subi	r18, 0x01	; 1
    207e:	80 40       	sbci	r24, 0x00	; 0
    2080:	90 40       	sbci	r25, 0x00	; 0
    2082:	e1 f7       	brne	.-8      	; 0x207c <ProcessWhite+0x48>
    2084:	00 c0       	rjmp	.+0      	; 0x2086 <ProcessWhite+0x52>
    2086:	00 00       	nop
			_delay_ms(100);
		}
		
		g_bTitle2Change = true;
    2088:	81 e0       	ldi	r24, 0x01	; 1
    208a:	80 93 71 03 	sts	0x0371, r24
    208e:	08 95       	ret

	}
	else
	{
		UnSaveRBGainValue();
    2090:	0e 94 e8 0f 	call	0x1fd0	; 0x1fd0 <UnSaveRBGainValue>
    2094:	08 95       	ret

00002096 <ProcessFilter>:
	return;
}

void ProcessFilter(void)
{
	if(g_stStatusCmd.WBMode == _WB_MODE_NORMAL)
    2096:	80 91 c7 03 	lds	r24, 0x03C7
    209a:	81 11       	cpse	r24, r1
    209c:	1a c0       	rjmp	.+52     	; 0x20d2 <ProcessFilter+0x3c>
	{
		if(_WHITE_MODE_NORMAL != g_stStatusCmd.WhiteMode)
    209e:	80 91 c3 03 	lds	r24, 0x03C3
    20a2:	81 11       	cpse	r24, r1
		{
			SetWhiteModeNormal();
    20a4:	0e 94 ab 0e 	call	0x1d56	; 0x1d56 <SetWhiteModeNormal>
		}
		
		switch(g_stStatusCmd.GreenMode)
    20a8:	80 91 c4 03 	lds	r24, 0x03C4
    20ac:	81 30       	cpi	r24, 0x01	; 1
    20ae:	41 f0       	breq	.+16     	; 0x20c0 <ProcessFilter+0x2a>
    20b0:	20 f0       	brcs	.+8      	; 0x20ba <ProcessFilter+0x24>
    20b2:	82 30       	cpi	r24, 0x02	; 2
    20b4:	41 f0       	breq	.+16     	; 0x20c6 <ProcessFilter+0x30>
    20b6:	83 30       	cpi	r24, 0x03	; 3
    20b8:	41 f4       	brne	.+16     	; 0x20ca <ProcessFilter+0x34>
				break;
			#else
				case _GREEN_MODE_NORMAL:
				case _GREEN_MODE_G3:
				{
					SetFilterG1();
    20ba:	0e 94 da 0e 	call	0x1db4	; 0x1db4 <SetFilterG1>
				}
				break;
    20be:	05 c0       	rjmp	.+10     	; 0x20ca <ProcessFilter+0x34>
				case _GREEN_MODE_G1:
				{
					SetFilterG2();
    20c0:	0e 94 f7 0e 	call	0x1dee	; 0x1dee <SetFilterG2>
				}
				break;
    20c4:	02 c0       	rjmp	.+4      	; 0x20ca <ProcessFilter+0x34>
				case _GREEN_MODE_G2:
				{
					SetFilterG3();
    20c6:	0e 94 15 0f 	call	0x1e2a	; 0x1e2a <SetFilterG3>
			default:
			//error
			break;
		}
		
		g_bTitle2Change = true;
    20ca:	81 e0       	ldi	r24, 0x01	; 1
    20cc:	80 93 71 03 	sts	0x0371, r24
    20d0:	08 95       	ret
	}
	else
	{
		UnSaveRBGainValue();
    20d2:	0e 94 e8 0f 	call	0x1fd0	; 0x1fd0 <UnSaveRBGainValue>
    20d6:	08 95       	ret

000020d8 <SetMirrorOn>:
	_delay_ms(100);
}

void SetMirrorOn(void)
{
	CAM_SetMirrorOn();
    20d8:	0e 94 42 03 	call	0x684	; 0x684 <CAM_SetMirrorOn>
	g_stStatusCmd.FlipMode = _MIRROR_MODE_ON;
    20dc:	83 e0       	ldi	r24, 0x03	; 3
    20de:	80 93 c6 03 	sts	0x03C6, r24
	g_stStatusCmd.bIsDisplay = true;
    20e2:	81 e0       	ldi	r24, 0x01	; 1
    20e4:	80 93 be 03 	sts	0x03BE, r24
	g_stStatusCmd.uiDisplayFlag |= _DISPLAY_EM;
	g_stStatusCmd.uiDisplayFlag |= _DISPLAY_ZOOM;
	g_stStatusCmd.uiDisplayFlag &= ~_DISPLAY_FOCUS;
    20e8:	ef eb       	ldi	r30, 0xBF	; 191
    20ea:	f3 e0       	ldi	r31, 0x03	; 3
    20ec:	90 81       	ld	r25, Z
    20ee:	9f 7d       	andi	r25, 0xDF	; 223
    20f0:	91 61       	ori	r25, 0x11	; 17
    20f2:	90 83       	st	Z, r25
	g_stStatusCmd.bIsTime = true;
    20f4:	80 93 c0 03 	sts	0x03C0, r24

	#if(_KEY_NUM == 61)
	g_stStatusCmd.titleDis.TitleColor = _TITLE_COLOR_CYAN;
	#else
	g_stStatusCmd.titleDis.TitleColor = _TITLE_COLOR_VIOLET;
    20f8:	92 e0       	ldi	r25, 0x02	; 2
    20fa:	90 93 b2 03 	sts	0x03B2, r25
	#endif
	
	g_stStatusCmd.titleDis.uiTitleVPos = 0x01;
    20fe:	e0 eb       	ldi	r30, 0xB0	; 176
    2100:	f3 e0       	ldi	r31, 0x03	; 3
    2102:	80 83       	st	Z, r24
	g_stStatusCmd.titleDis.uiTitleHPos = 0x01;
    2104:	80 93 b1 03 	sts	0x03B1, r24
	
	g_stStatusCmd.titleDis.TitleBlink = _TITLE_BLINK_ON;
    2108:	80 93 b3 03 	sts	0x03B3, r24
	CAM_SetTitleSet1(g_stStatusCmd.titleDis);
    210c:	60 81       	ld	r22, Z
    210e:	71 81       	ldd	r23, Z+1	; 0x01
    2110:	82 81       	ldd	r24, Z+2	; 0x02
    2112:	93 81       	ldd	r25, Z+3	; 0x03
    2114:	0e 94 96 03 	call	0x72c	; 0x72c <CAM_SetTitleSet1>
	if(g_stStatusCmd.uiModeID == _CAM_7500)
    2118:	80 91 a5 03 	lds	r24, 0x03A5
    211c:	85 30       	cpi	r24, 0x05	; 5
    211e:	49 f4       	brne	.+18     	; 0x2132 <SetMirrorOn+0x5a>
    2120:	2f ef       	ldi	r18, 0xFF	; 255
    2122:	80 e7       	ldi	r24, 0x70	; 112
    2124:	92 e0       	ldi	r25, 0x02	; 2
    2126:	21 50       	subi	r18, 0x01	; 1
    2128:	80 40       	sbci	r24, 0x00	; 0
    212a:	90 40       	sbci	r25, 0x00	; 0
    212c:	e1 f7       	brne	.-8      	; 0x2126 <SetMirrorOn+0x4e>
    212e:	00 c0       	rjmp	.+0      	; 0x2130 <SetMirrorOn+0x58>
    2130:	00 00       	nop
    2132:	08 95       	ret

00002134 <SetMirrorOff>:
		_delay_ms(100);
}
void SetMirrorOff(void)
{
	CAM_SetMirrorOff();
    2134:	0e 94 5e 03 	call	0x6bc	; 0x6bc <CAM_SetMirrorOff>
	g_stStatusCmd.FlipMode = _MIRROR_MODE_OFF;
    2138:	84 e0       	ldi	r24, 0x04	; 4
    213a:	80 93 c6 03 	sts	0x03C6, r24
	g_stStatusCmd.bIsDisplay = false;
    213e:	10 92 be 03 	sts	0x03BE, r1
	g_stStatusCmd.uiDisplayFlag &=~ _DISPLAY_EM;
	g_stStatusCmd.uiDisplayFlag &= ~_DISPLAY_ZOOM;
    2142:	ef eb       	ldi	r30, 0xBF	; 191
    2144:	f3 e0       	ldi	r31, 0x03	; 3
    2146:	80 81       	ld	r24, Z
    2148:	8e 7e       	andi	r24, 0xEE	; 238
    214a:	80 83       	st	Z, r24
	g_stStatusCmd.bIsTime = false;
    214c:	10 92 c0 03 	sts	0x03C0, r1

	g_stStatusCmd.titleDis.uiTitleVPos = 0x0a;
    2150:	e0 eb       	ldi	r30, 0xB0	; 176
    2152:	f3 e0       	ldi	r31, 0x03	; 3
    2154:	8a e0       	ldi	r24, 0x0A	; 10
    2156:	80 83       	st	Z, r24
	g_stStatusCmd.titleDis.uiTitleHPos = 0x01;
    2158:	81 e0       	ldi	r24, 0x01	; 1
    215a:	80 93 b1 03 	sts	0x03B1, r24
	g_stStatusCmd.titleDis.TitleColor = _TITLE_COLOR_YELLOW;
    215e:	80 93 b2 03 	sts	0x03B2, r24
	g_stStatusCmd.titleDis.TitleBlink = _TITLE_BLINK_OFF;
    2162:	10 92 b3 03 	sts	0x03B3, r1
	CAM_SetTitleSet1(g_stStatusCmd.titleDis);
    2166:	60 81       	ld	r22, Z
    2168:	71 81       	ldd	r23, Z+1	; 0x01
    216a:	82 81       	ldd	r24, Z+2	; 0x02
    216c:	93 81       	ldd	r25, Z+3	; 0x03
    216e:	0e 94 96 03 	call	0x72c	; 0x72c <CAM_SetTitleSet1>
	if(g_stStatusCmd.uiModeID == _CAM_7500)
    2172:	80 91 a5 03 	lds	r24, 0x03A5
    2176:	85 30       	cpi	r24, 0x05	; 5
    2178:	49 f4       	brne	.+18     	; 0x218c <SetMirrorOff+0x58>
    217a:	2f ef       	ldi	r18, 0xFF	; 255
    217c:	80 e7       	ldi	r24, 0x70	; 112
    217e:	92 e0       	ldi	r25, 0x02	; 2
    2180:	21 50       	subi	r18, 0x01	; 1
    2182:	80 40       	sbci	r24, 0x00	; 0
    2184:	90 40       	sbci	r25, 0x00	; 0
    2186:	e1 f7       	brne	.-8      	; 0x2180 <SetMirrorOff+0x4c>
    2188:	00 c0       	rjmp	.+0      	; 0x218a <SetMirrorOff+0x56>
    218a:	00 00       	nop
    218c:	08 95       	ret

0000218e <SetFlipOn>:
		_delay_ms(100);

}
void SetFlipOn(void)
{
	CAM_SetFlipOn();
    218e:	0e 94 0a 03 	call	0x614	; 0x614 <CAM_SetFlipOn>
	g_stStatusCmd.FlipMode = _FLIP_MODE_ON;
    2192:	81 e0       	ldi	r24, 0x01	; 1
    2194:	80 93 c6 03 	sts	0x03C6, r24
	g_stStatusCmd.bIsDisplay = true;
    2198:	80 93 be 03 	sts	0x03BE, r24
	g_stStatusCmd.uiDisplayFlag |= _DISPLAY_EM;
	g_stStatusCmd.uiDisplayFlag |= _DISPLAY_ZOOM;
	g_stStatusCmd.uiDisplayFlag &= ~_DISPLAY_FOCUS;
    219c:	ef eb       	ldi	r30, 0xBF	; 191
    219e:	f3 e0       	ldi	r31, 0x03	; 3
    21a0:	90 81       	ld	r25, Z
    21a2:	9f 7d       	andi	r25, 0xDF	; 223
    21a4:	91 61       	ori	r25, 0x11	; 17
    21a6:	90 83       	st	Z, r25
	g_stStatusCmd.bIsTime = true;
    21a8:	80 93 c0 03 	sts	0x03C0, r24

	#if(_KEY_NUM == 61)
	g_stStatusCmd.titleDis.TitleColor = _TITLE_COLOR_CYAN;
	#else
	g_stStatusCmd.titleDis.TitleColor = _TITLE_COLOR_VIOLET;
    21ac:	92 e0       	ldi	r25, 0x02	; 2
    21ae:	90 93 b2 03 	sts	0x03B2, r25
	#endif
	
	g_stStatusCmd.titleDis.uiTitleVPos = 0x01;
    21b2:	e0 eb       	ldi	r30, 0xB0	; 176
    21b4:	f3 e0       	ldi	r31, 0x03	; 3
    21b6:	80 83       	st	Z, r24
	g_stStatusCmd.titleDis.uiTitleHPos = 0x01;
    21b8:	80 93 b1 03 	sts	0x03B1, r24
	
	g_stStatusCmd.titleDis.TitleBlink = _TITLE_BLINK_ON;
    21bc:	80 93 b3 03 	sts	0x03B3, r24
	CAM_SetTitleSet1(g_stStatusCmd.titleDis);
    21c0:	60 81       	ld	r22, Z
    21c2:	71 81       	ldd	r23, Z+1	; 0x01
    21c4:	82 81       	ldd	r24, Z+2	; 0x02
    21c6:	93 81       	ldd	r25, Z+3	; 0x03
    21c8:	0e 94 96 03 	call	0x72c	; 0x72c <CAM_SetTitleSet1>
	if(g_stStatusCmd.uiModeID == _CAM_7500)
    21cc:	80 91 a5 03 	lds	r24, 0x03A5
    21d0:	85 30       	cpi	r24, 0x05	; 5
    21d2:	49 f4       	brne	.+18     	; 0x21e6 <SetFlipOn+0x58>
    21d4:	2f ef       	ldi	r18, 0xFF	; 255
    21d6:	80 e7       	ldi	r24, 0x70	; 112
    21d8:	92 e0       	ldi	r25, 0x02	; 2
    21da:	21 50       	subi	r18, 0x01	; 1
    21dc:	80 40       	sbci	r24, 0x00	; 0
    21de:	90 40       	sbci	r25, 0x00	; 0
    21e0:	e1 f7       	brne	.-8      	; 0x21da <SetFlipOn+0x4c>
    21e2:	00 c0       	rjmp	.+0      	; 0x21e4 <SetFlipOn+0x56>
    21e4:	00 00       	nop
    21e6:	08 95       	ret

000021e8 <SetFlipOff>:
		_delay_ms(100);

}
void SetFlipOff(void)
{
	CAM_SetFlipOff();
    21e8:	0e 94 26 03 	call	0x64c	; 0x64c <CAM_SetFlipOff>
	g_stStatusCmd.FlipMode = _FLIP_MODE_OFF;
    21ec:	82 e0       	ldi	r24, 0x02	; 2
    21ee:	80 93 c6 03 	sts	0x03C6, r24
	g_stStatusCmd.bIsDisplay = false;
    21f2:	10 92 be 03 	sts	0x03BE, r1
	g_stStatusCmd.uiDisplayFlag &=~ _DISPLAY_EM;
	g_stStatusCmd.uiDisplayFlag &= ~_DISPLAY_ZOOM;
    21f6:	ef eb       	ldi	r30, 0xBF	; 191
    21f8:	f3 e0       	ldi	r31, 0x03	; 3
    21fa:	80 81       	ld	r24, Z
    21fc:	8e 7e       	andi	r24, 0xEE	; 238
    21fe:	80 83       	st	Z, r24
	g_stStatusCmd.bIsTime = false;
    2200:	10 92 c0 03 	sts	0x03C0, r1

	g_stStatusCmd.titleDis.uiTitleVPos = 0x0a;
    2204:	e0 eb       	ldi	r30, 0xB0	; 176
    2206:	f3 e0       	ldi	r31, 0x03	; 3
    2208:	8a e0       	ldi	r24, 0x0A	; 10
    220a:	80 83       	st	Z, r24
	g_stStatusCmd.titleDis.uiTitleHPos = 0x01;
    220c:	81 e0       	ldi	r24, 0x01	; 1
    220e:	80 93 b1 03 	sts	0x03B1, r24
	g_stStatusCmd.titleDis.TitleColor = _TITLE_COLOR_YELLOW;
    2212:	80 93 b2 03 	sts	0x03B2, r24
	g_stStatusCmd.titleDis.TitleBlink = _TITLE_BLINK_OFF;
    2216:	10 92 b3 03 	sts	0x03B3, r1
	CAM_SetTitleSet1(g_stStatusCmd.titleDis);
    221a:	60 81       	ld	r22, Z
    221c:	71 81       	ldd	r23, Z+1	; 0x01
    221e:	82 81       	ldd	r24, Z+2	; 0x02
    2220:	93 81       	ldd	r25, Z+3	; 0x03
    2222:	0e 94 96 03 	call	0x72c	; 0x72c <CAM_SetTitleSet1>
	if(g_stStatusCmd.uiModeID == _CAM_7500)
    2226:	80 91 a5 03 	lds	r24, 0x03A5
    222a:	85 30       	cpi	r24, 0x05	; 5
    222c:	49 f4       	brne	.+18     	; 0x2240 <SetFlipOff+0x58>
    222e:	2f ef       	ldi	r18, 0xFF	; 255
    2230:	80 e7       	ldi	r24, 0x70	; 112
    2232:	92 e0       	ldi	r25, 0x02	; 2
    2234:	21 50       	subi	r18, 0x01	; 1
    2236:	80 40       	sbci	r24, 0x00	; 0
    2238:	90 40       	sbci	r25, 0x00	; 0
    223a:	e1 f7       	brne	.-8      	; 0x2234 <SetFlipOff+0x4c>
    223c:	00 c0       	rjmp	.+0      	; 0x223e <SetFlipOff+0x56>
    223e:	00 00       	nop
    2240:	08 95       	ret

00002242 <ProcessEM>:
}

void ProcessEM(void)
{

	switch(g_stStatusCmd.FlipMode)
    2242:	80 91 c6 03 	lds	r24, 0x03C6
    2246:	82 30       	cpi	r24, 0x02	; 2
    2248:	59 f0       	breq	.+22     	; 0x2260 <ProcessEM+0x1e>
    224a:	28 f4       	brcc	.+10     	; 0x2256 <ProcessEM+0x14>
    224c:	88 23       	and	r24, r24
    224e:	41 f0       	breq	.+16     	; 0x2260 <ProcessEM+0x1e>
    2250:	81 30       	cpi	r24, 0x01	; 1
    2252:	79 f0       	breq	.+30     	; 0x2272 <ProcessEM+0x30>
    2254:	10 c0       	rjmp	.+32     	; 0x2276 <ProcessEM+0x34>
    2256:	83 30       	cpi	r24, 0x03	; 3
    2258:	31 f0       	breq	.+12     	; 0x2266 <ProcessEM+0x24>
    225a:	84 30       	cpi	r24, 0x04	; 4
    225c:	39 f0       	breq	.+14     	; 0x226c <ProcessEM+0x2a>
    225e:	0b c0       	rjmp	.+22     	; 0x2276 <ProcessEM+0x34>
	{
		case _FLIP_MODE_NORMAL:
		case _FLIP_MODE_OFF:
		{
			SetMirrorOn();
    2260:	0e 94 6c 10 	call	0x20d8	; 0x20d8 <SetMirrorOn>
		}
		break;
    2264:	08 c0       	rjmp	.+16     	; 0x2276 <ProcessEM+0x34>
		case _MIRROR_MODE_ON:
		{
			SetMirrorOff();
    2266:	0e 94 9a 10 	call	0x2134	; 0x2134 <SetMirrorOff>
		}
		break;
    226a:	05 c0       	rjmp	.+10     	; 0x2276 <ProcessEM+0x34>
		case _MIRROR_MODE_OFF:
		{
			SetFlipOn();
    226c:	0e 94 c7 10 	call	0x218e	; 0x218e <SetFlipOn>
		}
		break;
    2270:	02 c0       	rjmp	.+4      	; 0x2276 <ProcessEM+0x34>
		case _FLIP_MODE_ON:
		{
			SetFlipOff();
    2272:	0e 94 f4 10 	call	0x21e8	; 0x21e8 <SetFlipOff>
		//error
		break;
	}


	g_bTitle1Change = true;
    2276:	81 e0       	ldi	r24, 0x01	; 1
    2278:	80 93 72 03 	sts	0x0372, r24
	g_bTitle2Change = true;
    227c:	80 93 71 03 	sts	0x0371, r24
    2280:	08 95       	ret

00002282 <CMessageHandle>:
	return;
}

void CMessageHandle(void)
{
	switch(g_ucKeyMessage)
    2282:	80 91 5a 03 	lds	r24, 0x035A
    2286:	90 e0       	ldi	r25, 0x00	; 0
    2288:	8c 30       	cpi	r24, 0x0C	; 12
    228a:	91 05       	cpc	r25, r1
    228c:	40 f5       	brcc	.+80     	; 0x22de <CMessageHandle+0x5c>
    228e:	fc 01       	movw	r30, r24
    2290:	ec 5c       	subi	r30, 0xCC	; 204
    2292:	ff 4f       	sbci	r31, 0xFF	; 255
    2294:	0c 94 78 18 	jmp	0x30f0	; 0x30f0 <__tablejump2__>
	{
		case _AF_KEY_MESSAGE:
		ProcessAF();
    2298:	0e 94 a9 0a 	call	0x1552	; 0x1552 <ProcessAF>
		break;
    229c:	20 c0       	rjmp	.+64     	; 0x22de <CMessageHandle+0x5c>
		
		case _WIDE_KEY_MESSAGE:
		ProcessWide();
    229e:	0e 94 79 0b 	call	0x16f2	; 0x16f2 <ProcessWide>
		break;
    22a2:	1d c0       	rjmp	.+58     	; 0x22de <CMessageHandle+0x5c>
		
		case _DISPLAY_KEY_MESSAGE:
		ProcessDisplay();
    22a4:	0e 94 30 0b 	call	0x1660	; 0x1660 <ProcessDisplay>
		break;
    22a8:	1a c0       	rjmp	.+52     	; 0x22de <CMessageHandle+0x5c>
		
		case _TELE_KEY_MESSAGE:
		ProcessTele();
    22aa:	0e 94 ff 0b 	call	0x17fe	; 0x17fe <ProcessTele>
		break;
    22ae:	17 c0       	rjmp	.+46     	; 0x22de <CMessageHandle+0x5c>
		
		case _TIME_KEY_MESSAGE:
		#if(_KEY_NUM==8&&_EM_KEY==1)
		ProcessEM();
    22b0:	0e 94 21 11 	call	0x2242	; 0x2242 <ProcessEM>
		#else
		ProcessTime();
		#endif
		break;
    22b4:	14 c0       	rjmp	.+40     	; 0x22de <CMessageHandle+0x5c>
		
		case _WHITE_KEY_MESSAGE:
		ProcessWhite();
    22b6:	0e 94 1a 10 	call	0x2034	; 0x2034 <ProcessWhite>
		break;
    22ba:	11 c0       	rjmp	.+34     	; 0x22de <CMessageHandle+0x5c>
		
		case  _FILTER_KEY_MESSAGE:
		ProcessFilter();
    22bc:	0e 94 4b 10 	call	0x2096	; 0x2096 <ProcessFilter>
		break;
    22c0:	0e c0       	rjmp	.+28     	; 0x22de <CMessageHandle+0x5c>
		
		case _FREEZE_KEY_MESSAGE:
		#if(_CAPTURE_ENABLE == 1)
		ProcessCapture();
		#else
		ProcessFreeze();
    22c2:	0e 94 ca 0f 	call	0x1f94	; 0x1f94 <ProcessFreeze>
		#endif
		break;
    22c6:	0b c0       	rjmp	.+22     	; 0x22de <CMessageHandle+0x5c>

		case _EM_KEY_MESSAGE:
		ProcessEM();
    22c8:	0e 94 21 11 	call	0x2242	; 0x2242 <ProcessEM>
		break;
    22cc:	08 c0       	rjmp	.+16     	; 0x22de <CMessageHandle+0x5c>
		
		case _AWB_KEY_MESSAGE:
		ProcessAutoWB();
    22ce:	0e 94 85 0c 	call	0x190a	; 0x190a <ProcessAutoWB>
		break;
    22d2:	05 c0       	rjmp	.+10     	; 0x22de <CMessageHandle+0x5c>
		
		case _MWB_KEY_MESSAGE:
		ProcessManualWB();
    22d4:	0e 94 d0 0c 	call	0x19a0	; 0x19a0 <ProcessManualWB>
		break;
    22d8:	02 c0       	rjmp	.+4      	; 0x22de <CMessageHandle+0x5c>
		
		case _RB_SWITCH_KEY_MESSAGE:
		ProcessSwitchRB();
    22da:	0e 94 1d 0d 	call	0x1a3a	; 0x1a3a <ProcessSwitchRB>
		
		default:
		break;
	}
	
	switch(g_ucRemoteMessage)
    22de:	80 91 64 03 	lds	r24, 0x0364
    22e2:	90 e0       	ldi	r25, 0x00	; 0
    22e4:	88 30       	cpi	r24, 0x08	; 8
    22e6:	91 05       	cpc	r25, r1
    22e8:	e0 f4       	brcc	.+56     	; 0x2322 <CMessageHandle+0xa0>
    22ea:	fc 01       	movw	r30, r24
    22ec:	e0 5c       	subi	r30, 0xC0	; 192
    22ee:	ff 4f       	sbci	r31, 0xFF	; 255
    22f0:	0c 94 78 18 	jmp	0x30f0	; 0x30f0 <__tablejump2__>
	{
		case _AF_KEY_MESSAGE:
		ProcessAF();
    22f4:	0e 94 a9 0a 	call	0x1552	; 0x1552 <ProcessAF>
		break;
    22f8:	08 95       	ret
		
		case _WIDE_KEY_MESSAGE:
		ProcessWide();
    22fa:	0e 94 79 0b 	call	0x16f2	; 0x16f2 <ProcessWide>
		break;
    22fe:	08 95       	ret
		
		case _DISPLAY_KEY_MESSAGE:
		ProcessDisplay();
    2300:	0e 94 30 0b 	call	0x1660	; 0x1660 <ProcessDisplay>
		break;
    2304:	08 95       	ret
		
		case _TELE_KEY_MESSAGE:
		ProcessTele();
    2306:	0e 94 ff 0b 	call	0x17fe	; 0x17fe <ProcessTele>
		break;
    230a:	08 95       	ret
		
		case _TIME_KEY_MESSAGE:
		#if(_KEY_NUM==8&&_EM_KEY==1)
		ProcessEM();
    230c:	0e 94 21 11 	call	0x2242	; 0x2242 <ProcessEM>
		#else
		ProcessTime();
		#endif
		break;
    2310:	08 95       	ret
		
		case _WHITE_KEY_MESSAGE:
		ProcessWhite();
    2312:	0e 94 1a 10 	call	0x2034	; 0x2034 <ProcessWhite>
		break;
    2316:	08 95       	ret
		
		case  _FILTER_KEY_MESSAGE:
		ProcessFilter();
    2318:	0e 94 4b 10 	call	0x2096	; 0x2096 <ProcessFilter>
		break;
    231c:	08 95       	ret
		
		case _FREEZE_KEY_MESSAGE:
		#if(_CAPTURE_ENABLE == 1)
		ProcessCapture();
		#else
		ProcessFreeze();
    231e:	0e 94 ca 0f 	call	0x1f94	; 0x1f94 <ProcessFreeze>
    2322:	08 95       	ret

00002324 <CRemoteScanReadyTimerEvent>:
// Input Value  : None
// Output Value : None
//--------------------------------------------------
void CRemoteScanReadyTimerEvent(void)
{
	SET_REMOTESCANREADY();
    2324:	80 91 65 03 	lds	r24, 0x0365
    2328:	81 60       	ori	r24, 0x01	; 1
    232a:	80 93 65 03 	sts	0x0365, r24
    232e:	08 95       	ret

00002330 <CRemoteRepeatEnableTimerEvent>:
// Input Value  : None
// Output Value : None
//--------------------------------------------------
void CRemoteRepeatEnableTimerEvent(void)
{
	SET_REMOTEREPEATSTART();
    2330:	80 91 65 03 	lds	r24, 0x0365
    2334:	84 60       	ori	r24, 0x04	; 4
    2336:	80 93 65 03 	sts	0x0365, r24
    233a:	08 95       	ret

0000233c <RemoteInit>:
bool g_ucTeleRemotePress = false;
bool g_ucTeleRemoteRelease = false;

void RemoteInit(void) 
{
	PORTC |= ((1<<PINC4)|(1<<PINC3  )|(1<<PINC2)|(1<<PINC1)|(1<<PINC0));
    233c:	88 b1       	in	r24, 0x08	; 8
    233e:	8f 61       	ori	r24, 0x1F	; 31
    2340:	88 b9       	out	0x08, r24	; 8
	DDRC &= !((1<<DDRC4)|(1<<DDRC3)|(1<<DDRC2)|(1<<DDRC1)|(1<<DDRC0));
    2342:	87 b1       	in	r24, 0x07	; 7
    2344:	17 b8       	out	0x07, r1	; 7
    2346:	08 95       	ret

00002348 <CRemoteScanReady>:
// Input Value  : None
// Output Value : Remote scan flag
//--------------------------------------------------
bool CRemoteScanReady(void)
{
	if(GET_REMOTESCANSTART() && GET_REMOTESCANREADY())
    2348:	80 91 65 03 	lds	r24, 0x0365
    234c:	28 2f       	mov	r18, r24
    234e:	22 70       	andi	r18, 0x02	; 2
    2350:	98 2f       	mov	r25, r24
    2352:	93 70       	andi	r25, 0x03	; 3
    2354:	93 30       	cpi	r25, 0x03	; 3
    2356:	79 f0       	breq	.+30     	; 0x2376 <CRemoteScanReady+0x2e>
	{
		return true;
	}
	else if(!GET_REMOTESCANSTART())
    2358:	21 11       	cpse	r18, r1
    235a:	0f c0       	rjmp	.+30     	; 0x237a <CRemoteScanReady+0x32>
	{
		// Wait 0.02 sec in order to keep the Remotepad debounce
		SET_REMOTESCANSTART();
    235c:	82 60       	ori	r24, 0x02	; 2
    235e:	80 93 65 03 	sts	0x0365, r24
		CTimerReactiveTimerEvent(MSEC(REMOTE_DEBOUNCE_TIME), CRemoteScanReadyTimerEvent);
    2362:	42 e9       	ldi	r20, 0x92	; 146
    2364:	51 e1       	ldi	r21, 0x11	; 17
    2366:	6a e0       	ldi	r22, 0x0A	; 10
    2368:	70 e0       	ldi	r23, 0x00	; 0
    236a:	80 e0       	ldi	r24, 0x00	; 0
    236c:	90 e0       	ldi	r25, 0x00	; 0
    236e:	0e 94 5b 14 	call	0x28b6	; 0x28b6 <CTimerReactiveTimerEvent>
	}
	return false;
    2372:	80 e0       	ldi	r24, 0x00	; 0
    2374:	08 95       	ret
//--------------------------------------------------
bool CRemoteScanReady(void)
{
	if(GET_REMOTESCANSTART() && GET_REMOTESCANREADY())
	{
		return true;
    2376:	81 e0       	ldi	r24, 0x01	; 1
    2378:	08 95       	ret
	{
		// Wait 0.02 sec in order to keep the Remotepad debounce
		SET_REMOTESCANSTART();
		CTimerReactiveTimerEvent(MSEC(REMOTE_DEBOUNCE_TIME), CRemoteScanReadyTimerEvent);
	}
	return false;
    237a:	80 e0       	ldi	r24, 0x00	; 0
}
    237c:	08 95       	ret

0000237e <CRemoteScan>:
uint8_t CRemoteScan(void)
{
	uint8_t ucRemoteState = 0;
	uint8_t valC;
	
	valC = PINC;
    237e:	96 b1       	in	r25, 0x06	; 6
	
	if ((valC & REMOTE_MASK_VT))
    2380:	94 ff       	sbrs	r25, 4
    2382:	48 c0       	rjmp	.+144    	; 0x2414 <CRemoteScan+0x96>
	{
		valC &= REMOTE_MASK_ALL;
    2384:	9f 70       	andi	r25, 0x0F	; 15
		
		if (REMOTE_MASK_WIDE == valC)
    2386:	99 30       	cpi	r25, 0x09	; 9
    2388:	69 f0       	breq	.+26     	; 0x23a4 <CRemoteScan+0x26>
		{
			ucRemoteState = ucRemoteState | _WIDE_KEY_MASK;
		}
		else
		{
			if(g_ucWideRemotePress)
    238a:	80 91 62 03 	lds	r24, 0x0362
    238e:	88 23       	and	r24, r24
    2390:	29 f0       	breq	.+10     	; 0x239c <CRemoteScan+0x1e>
			{
				g_ucWideRemotePress= false;
    2392:	10 92 62 03 	sts	0x0362, r1
				g_ucWideRemoteRelease= true;
    2396:	81 e0       	ldi	r24, 0x01	; 1
    2398:	80 93 61 03 	sts	0x0361, r24
				MyPrintf("Wide Remote release!!\r\n");
				#endif
			}
		}
		
		if (REMOTE_MASK_TELE == valC)
    239c:	96 30       	cpi	r25, 0x06	; 6
    239e:	61 f1       	breq	.+88     	; 0x23f8 <CRemoteScan+0x7a>
    23a0:	80 e0       	ldi	r24, 0x00	; 0
    23a2:	01 c0       	rjmp	.+2      	; 0x23a6 <CRemoteScan+0x28>
	{
		valC &= REMOTE_MASK_ALL;
		
		if (REMOTE_MASK_WIDE == valC)
		{
			ucRemoteState = ucRemoteState | _WIDE_KEY_MASK;
    23a4:	82 e0       	ldi	r24, 0x02	; 2
		{
			ucRemoteState = ucRemoteState | _TELE_KEY_MASK;
		}
		else
		{
			if(g_ucTeleRemotePress)
    23a6:	20 91 60 03 	lds	r18, 0x0360
    23aa:	22 23       	and	r18, r18
    23ac:	29 f0       	breq	.+10     	; 0x23b8 <CRemoteScan+0x3a>
			{
				g_ucTeleRemotePress= false;
    23ae:	10 92 60 03 	sts	0x0360, r1
				g_ucTeleRemoteRelease= true;
    23b2:	21 e0       	ldi	r18, 0x01	; 1
    23b4:	20 93 5f 03 	sts	0x035F, r18
				MyPrintf("Tele Remote release!!\r\n");
				#endif
			}
		}

		switch(valC)
    23b8:	93 30       	cpi	r25, 0x03	; 3
    23ba:	79 f0       	breq	.+30     	; 0x23da <CRemoteScan+0x5c>
    23bc:	28 f4       	brcc	.+10     	; 0x23c8 <CRemoteScan+0x4a>
    23be:	91 30       	cpi	r25, 0x01	; 1
    23c0:	a1 f0       	breq	.+40     	; 0x23ea <CRemoteScan+0x6c>
    23c2:	92 30       	cpi	r25, 0x02	; 2
    23c4:	81 f0       	breq	.+32     	; 0x23e6 <CRemoteScan+0x68>
    23c6:	12 c0       	rjmp	.+36     	; 0x23ec <CRemoteScan+0x6e>
    23c8:	98 30       	cpi	r25, 0x08	; 8
    23ca:	29 f0       	breq	.+10     	; 0x23d6 <CRemoteScan+0x58>
    23cc:	9c 30       	cpi	r25, 0x0C	; 12
    23ce:	39 f0       	breq	.+14     	; 0x23de <CRemoteScan+0x60>
    23d0:	94 30       	cpi	r25, 0x04	; 4
    23d2:	39 f0       	breq	.+14     	; 0x23e2 <CRemoteScan+0x64>
    23d4:	0b c0       	rjmp	.+22     	; 0x23ec <CRemoteScan+0x6e>
		{
			case REMOTE_MASK_AF:
				ucRemoteState = ucRemoteState | _AF_KEY_MASK;
    23d6:	81 60       	ori	r24, 0x01	; 1
			break;
    23d8:	09 c0       	rjmp	.+18     	; 0x23ec <CRemoteScan+0x6e>
// 			case REMOTE_MASK_WIDE:
// 				ucRemoteState = ucRemoteState | _WIDE_KEY_MASK;
// 			break;
			case REMOTE_MASK_DISPLAY:
				ucRemoteState = ucRemoteState | _DISPLAY_KEY_MASK;
    23da:	84 60       	ori	r24, 0x04	; 4
			break;
    23dc:	07 c0       	rjmp	.+14     	; 0x23ec <CRemoteScan+0x6e>
// 			case REMOTE_MASK_TELE:
// 				ucRemoteState = ucRemoteState | _TELE_KEY_MASK;
// 			break;
			case REMOTE_MASK_TIME:
				ucRemoteState = ucRemoteState | _TIME_KEY_MASK;
    23de:	80 61       	ori	r24, 0x10	; 16
			break;
    23e0:	05 c0       	rjmp	.+10     	; 0x23ec <CRemoteScan+0x6e>
			case REMOTE_MASK_WHITE:
				ucRemoteState = ucRemoteState | _WHITE_KEY_MASK;
    23e2:	80 62       	ori	r24, 0x20	; 32
			break;
    23e4:	03 c0       	rjmp	.+6      	; 0x23ec <CRemoteScan+0x6e>
			case REMOTE_MASK_FREEZE:
				ucRemoteState = ucRemoteState | _FREEZE_KEY_MASK;
    23e6:	80 64       	ori	r24, 0x40	; 64
			break;
    23e8:	01 c0       	rjmp	.+2      	; 0x23ec <CRemoteScan+0x6e>
			case REMOTE_MASK_FILTER:
				ucRemoteState = ucRemoteState | _FILTER_KEY_MASK;
    23ea:	80 68       	ori	r24, 0x80	; 128
		}
		#ifdef _DEBUG_PRINTF
		//MyPrintf("remote mask is: %d\r\n",valC);
		#endif

		if(ucRemoteState & _WIDE_KEY_MASK)
    23ec:	81 ff       	sbrs	r24, 1
    23ee:	05 c0       	rjmp	.+10     	; 0x23fa <CRemoteScan+0x7c>
		{
			g_ucWideRemotePress = true;
    23f0:	91 e0       	ldi	r25, 0x01	; 1
    23f2:	90 93 62 03 	sts	0x0362, r25
    23f6:	01 c0       	rjmp	.+2      	; 0x23fa <CRemoteScan+0x7c>
			}
		}
		
		if (REMOTE_MASK_TELE == valC)
		{
			ucRemoteState = ucRemoteState | _TELE_KEY_MASK;
    23f8:	88 e0       	ldi	r24, 0x08	; 8
		if(ucRemoteState & _WIDE_KEY_MASK)
		{
			g_ucWideRemotePress = true;
		}

		if(ucRemoteState & _TELE_KEY_MASK)
    23fa:	83 ff       	sbrs	r24, 3
    23fc:	03 c0       	rjmp	.+6      	; 0x2404 <CRemoteScan+0x86>
		{
			g_ucTeleRemotePress = true;
    23fe:	91 e0       	ldi	r25, 0x01	; 1
    2400:	90 93 60 03 	sts	0x0360, r25
		}
		
		if(ucRemoteState != 0)
    2404:	88 23       	and	r24, r24
    2406:	39 f0       	breq	.+14     	; 0x2416 <CRemoteScan+0x98>
		{
			CLR_REMOTESCANREADY();
			CLR_REMOTESCANSTART();
    2408:	90 91 65 03 	lds	r25, 0x0365
    240c:	9c 7f       	andi	r25, 0xFC	; 252
    240e:	90 93 65 03 	sts	0x0365, r25
    2412:	08 95       	ret
// Input Value  : None
// Output Value : None
//--------------------------------------------------
uint8_t CRemoteScan(void)
{
	uint8_t ucRemoteState = 0;
    2414:	80 e0       	ldi	r24, 0x00	; 0
			CLR_REMOTESCANREADY();
			CLR_REMOTESCANSTART();
		}
	}
	return ucRemoteState;
}
    2416:	08 95       	ret

00002418 <CRemoteMessageConvert>:
//                ucRemoteMsg      --> Remote message
// Output Value : None
//--------------------------------------------------
void CRemoteMessageConvert(uint8_t ucRemoteMask, uint8_t ucRemoteMsg)
{
	if((g_ucRemoteStatePrev ^ g_ucRemoteStateCurr) & ucRemoteMask)
    2418:	20 91 66 03 	lds	r18, 0x0366
    241c:	90 91 63 03 	lds	r25, 0x0363
    2420:	92 27       	eor	r25, r18
    2422:	89 23       	and	r24, r25
    2424:	19 f0       	breq	.+6      	; 0x242c <CRemoteMessageConvert+0x14>
	{
		g_ucRemoteMessage = ucRemoteMsg;
    2426:	60 93 64 03 	sts	0x0364, r22
    242a:	08 95       	ret
		//MyPrintf("Current remote key num is: R%d\r\n",g_ucRemoteMessage + 1);
		#endif
	}
	else
	{
		if(GET_REMOTEREPEATENABLE())
    242c:	80 91 65 03 	lds	r24, 0x0365
    2430:	83 ff       	sbrs	r24, 3
    2432:	10 c0       	rjmp	.+32     	; 0x2454 <CRemoteMessageConvert+0x3c>
		{
			if(GET_REMOTEREPEATSTART())
    2434:	82 ff       	sbrs	r24, 2
    2436:	06 c0       	rjmp	.+12     	; 0x2444 <CRemoteMessageConvert+0x2c>
			{
				g_ucRemoteMessage = ucRemoteMsg;
    2438:	60 93 64 03 	sts	0x0364, r22
				CLR_REMOTEREPEATSTART();
    243c:	8b 7f       	andi	r24, 0xFB	; 251
    243e:	80 93 65 03 	sts	0x0365, r24
    2442:	08 95       	ret
			}
			else
			{
				CTimerActiveTimerEvent(MSEC(KEY_REPEAT_START_TIME), CRemoteRepeatEnableTimerEvent);
    2444:	48 e9       	ldi	r20, 0x98	; 152
    2446:	51 e1       	ldi	r21, 0x11	; 17
    2448:	6c e2       	ldi	r22, 0x2C	; 44
    244a:	71 e0       	ldi	r23, 0x01	; 1
    244c:	80 e0       	ldi	r24, 0x00	; 0
    244e:	90 e0       	ldi	r25, 0x00	; 0
    2450:	0e 94 fb 13 	call	0x27f6	; 0x27f6 <CTimerActiveTimerEvent>
    2454:	08 95       	ret

00002456 <CRemoteMessageProc>:
// Input Value  : None
// Output Value : None
//--------------------------------------------------
void CRemoteMessageProc(void)
{
	switch(g_ucRemoteStateCurr)
    2456:	80 91 66 03 	lds	r24, 0x0366
    245a:	88 30       	cpi	r24, 0x08	; 8
    245c:	11 f1       	breq	.+68     	; 0x24a2 <CRemoteMessageProc+0x4c>
    245e:	38 f4       	brcc	.+14     	; 0x246e <CRemoteMessageProc+0x18>
    2460:	82 30       	cpi	r24, 0x02	; 2
    2462:	a9 f0       	breq	.+42     	; 0x248e <CRemoteMessageProc+0x38>
    2464:	84 30       	cpi	r24, 0x04	; 4
    2466:	c1 f0       	breq	.+48     	; 0x2498 <CRemoteMessageProc+0x42>
    2468:	81 30       	cpi	r24, 0x01	; 1
    246a:	a1 f5       	brne	.+104    	; 0x24d4 <CRemoteMessageProc+0x7e>
    246c:	0b c0       	rjmp	.+22     	; 0x2484 <CRemoteMessageProc+0x2e>
    246e:	80 32       	cpi	r24, 0x20	; 32
    2470:	11 f1       	breq	.+68     	; 0x24b6 <CRemoteMessageProc+0x60>
    2472:	18 f4       	brcc	.+6      	; 0x247a <CRemoteMessageProc+0x24>
    2474:	80 31       	cpi	r24, 0x10	; 16
    2476:	d1 f0       	breq	.+52     	; 0x24ac <CRemoteMessageProc+0x56>
    2478:	2d c0       	rjmp	.+90     	; 0x24d4 <CRemoteMessageProc+0x7e>
    247a:	80 34       	cpi	r24, 0x40	; 64
    247c:	09 f1       	breq	.+66     	; 0x24c0 <CRemoteMessageProc+0x6a>
    247e:	80 38       	cpi	r24, 0x80	; 128
    2480:	21 f1       	breq	.+72     	; 0x24ca <CRemoteMessageProc+0x74>
    2482:	28 c0       	rjmp	.+80     	; 0x24d4 <CRemoteMessageProc+0x7e>
	{
		case _AF_KEY_MASK:
		CRemoteMessageConvert(_AF_KEY_MASK, _AF_KEY_MESSAGE);
    2484:	60 e0       	ldi	r22, 0x00	; 0
    2486:	81 e0       	ldi	r24, 0x01	; 1
    2488:	0e 94 0c 12 	call	0x2418	; 0x2418 <CRemoteMessageConvert>
		break;
    248c:	08 95       	ret

		case _WIDE_KEY_MASK:
		CRemoteMessageConvert(_WIDE_KEY_MASK, _WIDE_KEY_MESSAGE);
    248e:	61 e0       	ldi	r22, 0x01	; 1
    2490:	82 e0       	ldi	r24, 0x02	; 2
    2492:	0e 94 0c 12 	call	0x2418	; 0x2418 <CRemoteMessageConvert>
		break;
    2496:	08 95       	ret

		case _DISPLAY_KEY_MASK:
		CRemoteMessageConvert(_DISPLAY_KEY_MASK, _DISPLAY_KEY_MESSAGE);
    2498:	62 e0       	ldi	r22, 0x02	; 2
    249a:	84 e0       	ldi	r24, 0x04	; 4
    249c:	0e 94 0c 12 	call	0x2418	; 0x2418 <CRemoteMessageConvert>
		break;
    24a0:	08 95       	ret

		case _TELE_KEY_MASK:
		CRemoteMessageConvert(_TELE_KEY_MASK, _TELE_KEY_MESSAGE);
    24a2:	63 e0       	ldi	r22, 0x03	; 3
    24a4:	88 e0       	ldi	r24, 0x08	; 8
    24a6:	0e 94 0c 12 	call	0x2418	; 0x2418 <CRemoteMessageConvert>
		break;
    24aa:	08 95       	ret
		
		case _TIME_KEY_MASK:
		CRemoteMessageConvert(_TIME_KEY_MASK, _TIME_KEY_MESSAGE);
    24ac:	64 e0       	ldi	r22, 0x04	; 4
    24ae:	80 e1       	ldi	r24, 0x10	; 16
    24b0:	0e 94 0c 12 	call	0x2418	; 0x2418 <CRemoteMessageConvert>
		break;
    24b4:	08 95       	ret
		
		case _WHITE_KEY_MASK:
		CRemoteMessageConvert(_WHITE_KEY_MASK, _WHITE_KEY_MESSAGE);
    24b6:	65 e0       	ldi	r22, 0x05	; 5
    24b8:	80 e2       	ldi	r24, 0x20	; 32
    24ba:	0e 94 0c 12 	call	0x2418	; 0x2418 <CRemoteMessageConvert>
		break;
    24be:	08 95       	ret
		
		case _FREEZE_KEY_MASK:
		CRemoteMessageConvert(_FREEZE_KEY_MASK, _FREEZE_KEY_MESSAGE);
    24c0:	66 e0       	ldi	r22, 0x06	; 6
    24c2:	80 e4       	ldi	r24, 0x40	; 64
    24c4:	0e 94 0c 12 	call	0x2418	; 0x2418 <CRemoteMessageConvert>
		break;
    24c8:	08 95       	ret
		
		case _FILTER_KEY_MASK:
		CRemoteMessageConvert(_FILTER_KEY_MASK, _FILTER_KEY_MESSAGE);
    24ca:	67 e0       	ldi	r22, 0x07	; 7
    24cc:	80 e8       	ldi	r24, 0x80	; 128
    24ce:	0e 94 0c 12 	call	0x2418	; 0x2418 <CRemoteMessageConvert>
		break;
    24d2:	08 95       	ret
		
		default:
		CLR_REMOTEREPEATSTART();
    24d4:	80 91 65 03 	lds	r24, 0x0365
    24d8:	8b 7f       	andi	r24, 0xFB	; 251
    24da:	80 93 65 03 	sts	0x0365, r24
		CTimerCancelTimerEvent(CRemoteRepeatEnableTimerEvent);
    24de:	88 e9       	ldi	r24, 0x98	; 152
    24e0:	91 e1       	ldi	r25, 0x11	; 17
    24e2:	0e 94 93 14 	call	0x2926	; 0x2926 <CTimerCancelTimerEvent>
    24e6:	08 95       	ret

000024e8 <CRemoteHandle>:
// Output Value : None
//--------------------------------------------------
void CRemoteHandle(void)
{
	//static uint8_t uiRemoteCount = 0;
	g_ucRemoteMessage = _NONE_KEY_MESSAGE;
    24e8:	8c e0       	ldi	r24, 0x0C	; 12
    24ea:	80 93 64 03 	sts	0x0364, r24
	
	if(CRemoteScanReady())
    24ee:	0e 94 a4 11 	call	0x2348	; 0x2348 <CRemoteScanReady>
    24f2:	88 23       	and	r24, r24
    24f4:	c9 f0       	breq	.+50     	; 0x2528 <CRemoteHandle+0x40>
	{
		g_ucRemoteStatePrev = g_ucRemoteStateCurr;
    24f6:	80 91 66 03 	lds	r24, 0x0366
    24fa:	80 93 63 03 	sts	0x0363, r24
		g_ucRemoteStateCurr = CRemoteScan();
    24fe:	0e 94 bf 11 	call	0x237e	; 0x237e <CRemoteScan>
    2502:	80 93 66 03 	sts	0x0366, r24

		// You can set a Remote as repeatable like this
		if(_WIDE_KEY_MASK == g_ucRemoteStateCurr || _TELE_KEY_MASK == g_ucRemoteStateCurr)
    2506:	82 30       	cpi	r24, 0x02	; 2
    2508:	11 f0       	breq	.+4      	; 0x250e <CRemoteHandle+0x26>
    250a:	88 30       	cpi	r24, 0x08	; 8
    250c:	31 f4       	brne	.+12     	; 0x251a <CRemoteHandle+0x32>
		{
			//if (uiRemoteCount++>1)
			{
				//uiRemoteCount = 0;
				SET_REMOTEREPEATENABLE();
    250e:	80 91 65 03 	lds	r24, 0x0365
    2512:	88 60       	ori	r24, 0x08	; 8
    2514:	80 93 65 03 	sts	0x0365, r24
    2518:	05 c0       	rjmp	.+10     	; 0x2524 <CRemoteHandle+0x3c>
// 			}
		}
		else
		{
			//uiRemoteCount = 0;
			CLR_REMOTEREPEATENABLE();
    251a:	80 91 65 03 	lds	r24, 0x0365
    251e:	87 7f       	andi	r24, 0xF7	; 247
    2520:	80 93 65 03 	sts	0x0365, r24
		}

		CRemoteMessageProc();
    2524:	0e 94 2b 12 	call	0x2456	; 0x2456 <CRemoteMessageProc>
    2528:	08 95       	ret

0000252a <StatusInit>:
STATUS_CMD g_stStatusCmd;
PRODUCT_INFO g_stProductInfo;


void StatusInit(STATUS_CMD* Cmd)
{
    252a:	fc 01       	movw	r30, r24
	Cmd->uiCamID = 0;
    252c:	11 82       	std	Z+1, r1	; 0x01
    252e:	10 82       	st	Z, r1
	Cmd->uiFocusPosMax = 0x7000;
    2530:	80 e0       	ldi	r24, 0x00	; 0
    2532:	90 e7       	ldi	r25, 0x70	; 112
    2534:	94 83       	std	Z+4, r25	; 0x04
    2536:	83 83       	std	Z+3, r24	; 0x03
	Cmd->uiRGain = 0;
    2538:	15 82       	std	Z+5, r1	; 0x05
	Cmd->uiBGain = 0;
    253a:	17 82       	std	Z+7, r1	; 0x07
	Cmd->uiXRate = 7;
    253c:	87 e0       	ldi	r24, 0x07	; 7
    253e:	81 87       	std	Z+9, r24	; 0x09
	Cmd->uiXRateShow = 0;//must diffrent with uiXRate!
    2540:	12 86       	std	Z+10, r1	; 0x0a
	Cmd->uiMF = 0;
    2542:	13 86       	std	Z+11, r1	; 0x0b
	Cmd->uiMFShow = 8;//must diffrent with uiMF!
    2544:	88 e0       	ldi	r24, 0x08	; 8
    2546:	84 87       	std	Z+12, r24	; 0x0c
	Cmd->titleDis.TitleColor = _TITLE_COLOR_YELLOW;
    2548:	81 e0       	ldi	r24, 0x01	; 1
    254a:	87 87       	std	Z+15, r24	; 0x0f
	Cmd->titleDis.TitleBlink = _TITLE_BLINK_OFF;
    254c:	10 8a       	std	Z+16, r1	; 0x10
	Cmd->uiApertureGain = 0x0e;
    254e:	8e e0       	ldi	r24, 0x0E	; 14
    2550:	81 8b       	std	Z+17, r24	; 0x11
	Cmd->FocusMode = _FOCUS_MODE_AUTO;
    2552:	12 8a       	std	Z+18, r1	; 0x12
	Cmd->uiZoomPos = 0;
    2554:	14 8a       	std	Z+20, r1	; 0x14
    2556:	13 8a       	std	Z+19, r1	; 0x13
	Cmd->uiFocusPos = 0;
    2558:	16 8a       	std	Z+22, r1	; 0x16
    255a:	15 8a       	std	Z+21, r1	; 0x15
	Cmd->bStartFar = false;
    255c:	17 8a       	std	Z+23, r1	; 0x17
	Cmd->bStartZoomOut= false;
    255e:	10 8e       	std	Z+24, r1	; 0x18
	Cmd->bStartNear = false;
    2560:	11 8e       	std	Z+25, r1	; 0x19
	Cmd->bStartZoomIn= false;
    2562:	12 8e       	std	Z+26, r1	; 0x1a
	Cmd->bIsDisplay = false;
    2564:	13 8e       	std	Z+27, r1	; 0x1b
	Cmd->uiDisplayFlag = _DISPLAY_NULL;
    2566:	14 8e       	std	Z+28, r1	; 0x1c
	Cmd->bIsTime = false;
    2568:	15 8e       	std	Z+29, r1	; 0x1d
	Cmd->bIsStill = false;
    256a:	16 8e       	std	Z+30, r1	; 0x1e
	Cmd->bShowVersion = false;
    256c:	17 8e       	std	Z+31, r1	; 0x1f
	Cmd->WhiteMode = _WHITE_MODE_NORMAL;
    256e:	10 a2       	std	Z+32, r1	; 0x20
	Cmd->GreenMode = _GREEN_MODE_NORMAL;
    2570:	11 a2       	std	Z+33, r1	; 0x21
	Cmd->ZoomMode = _ZOOM_MODE_GRADING;
    2572:	12 a2       	std	Z+34, r1	; 0x22
	Cmd->FlipMode = _FLIP_MODE_NORMAL;
    2574:	13 a2       	std	Z+35, r1	; 0x23
	Cmd->WBMode = _WB_MODE_NORMAL;
    2576:	14 a2       	std	Z+36, r1	; 0x24
    2578:	08 95       	ret

0000257a <ProductInfoInit>:
}

void ProductInfoInit(PRODUCT_INFO* info)
{
    257a:	dc 01       	movw	r26, r24
    257c:	fc 01       	movw	r30, r24
	for (uint8_t i=0;i<10;i++)
    257e:	80 e0       	ldi	r24, 0x00	; 0
	{
		#if(_CCD_TYPE_CODE == _CCD_7500)
		info->uiProductModel[i] = 0x20;//space
		#else
		info->uiProductModel[i] = 0x1b;
    2580:	9b e1       	ldi	r25, 0x1B	; 27
    2582:	91 93       	st	Z+, r25
	Cmd->WBMode = _WB_MODE_NORMAL;
}

void ProductInfoInit(PRODUCT_INFO* info)
{
	for (uint8_t i=0;i<10;i++)
    2584:	8f 5f       	subi	r24, 0xFF	; 255
    2586:	8a 30       	cpi	r24, 0x0A	; 10
    2588:	e1 f7       	brne	.-8      	; 0x2582 <ProductInfoInit+0x8>
	info->uiProductModel[9] = 0x02;//C

	info->uiMajorVer = 1;
	info->uiMinorVer = 0;
#elif(_PRODUCT_TYPE_CODE == _INDIA_SD)
	info->uiProductModel[0] = 0x08;//I
    258a:	98 e0       	ldi	r25, 0x08	; 8
    258c:	9c 93       	st	X, r25
	info->uiProductModel[1] = 0x0D;//N
    258e:	8d e0       	ldi	r24, 0x0D	; 13
    2590:	11 96       	adiw	r26, 0x01	; 1
    2592:	8c 93       	st	X, r24
    2594:	11 97       	sbiw	r26, 0x01	; 1
	info->uiProductModel[2] = 0x03;//D
    2596:	83 e0       	ldi	r24, 0x03	; 3
    2598:	12 96       	adiw	r26, 0x02	; 2
    259a:	8c 93       	st	X, r24
    259c:	12 97       	sbiw	r26, 0x02	; 2
	info->uiProductModel[3] = 0x08;// I
    259e:	13 96       	adiw	r26, 0x03	; 3
    25a0:	9c 93       	st	X, r25
    25a2:	13 97       	sbiw	r26, 0x03	; 3
	info->uiProductModel[4] = 0x00;// A
    25a4:	14 96       	adiw	r26, 0x04	; 4
    25a6:	1c 92       	st	X, r1
    25a8:	14 97       	sbiw	r26, 0x04	; 4
	//info->uiProductModel[5] = 0x27;//0
	info->uiProductModel[6] = 0x00;//0
    25aa:	16 96       	adiw	r26, 0x06	; 6
    25ac:	1c 92       	st	X, r1
    25ae:	16 97       	sbiw	r26, 0x06	; 6
	//info->uiProductModel[7] = 0x27;//0
	info->uiProductModel[8] = 0x12;//0
    25b0:	92 e1       	ldi	r25, 0x12	; 18
    25b2:	18 96       	adiw	r26, 0x08	; 8
    25b4:	9c 93       	st	X, r25
    25b6:	18 97       	sbiw	r26, 0x08	; 8
	info->uiProductModel[9] = 0x03;//0
    25b8:	19 96       	adiw	r26, 0x09	; 9
    25ba:	8c 93       	st	X, r24
    25bc:	19 97       	sbiw	r26, 0x09	; 9
	info->uiMajorVer = 1;
    25be:	81 e0       	ldi	r24, 0x01	; 1
    25c0:	1a 96       	adiw	r26, 0x0a	; 10
    25c2:	8c 93       	st	X, r24
    25c4:	1a 97       	sbiw	r26, 0x0a	; 10
	info->uiMinorVer = 0;	
    25c6:	1b 96       	adiw	r26, 0x0b	; 11
    25c8:	1c 92       	st	X, r1
    25ca:	08 95       	ret

000025cc <CTimerInit>:
// Input Value  : Timer index
// Output Value : None
//--------------------------------------------------
void CTimerInit(uint8_t Index)
{
	if (Index == 1)
    25cc:	81 30       	cpi	r24, 0x01	; 1
    25ce:	81 f4       	brne	.+32     	; 0x25f0 <CTimerInit+0x24>
	{
		TCNT1 = TimeInterval;
    25d0:	88 e1       	ldi	r24, 0x18	; 24
    25d2:	9c ef       	ldi	r25, 0xFC	; 252
    25d4:	90 93 85 00 	sts	0x0085, r25
    25d8:	80 93 84 00 	sts	0x0084, r24
		
		TIMSK1 |= (1 << TOIE1);//Enable T1 int
    25dc:	ef e6       	ldi	r30, 0x6F	; 111
    25de:	f0 e0       	ldi	r31, 0x00	; 0
    25e0:	80 81       	ld	r24, Z
    25e2:	81 60       	ori	r24, 0x01	; 1
    25e4:	80 83       	st	Z, r24
		
		TCCR1B |= (1 << CS11);//T1 normal, div=8
    25e6:	e1 e8       	ldi	r30, 0x81	; 129
    25e8:	f0 e0       	ldi	r31, 0x00	; 0
    25ea:	80 81       	ld	r24, Z
    25ec:	82 60       	ori	r24, 0x02	; 2
    25ee:	80 83       	st	Z, r24
    25f0:	08 95       	ret

000025f2 <CTimerHandle>:
// Description  : Check if it's time to execute events
// Input Value  : None
// Output Value : None
//--------------------------------------------------
void CTimerHandle(void)
{
    25f2:	cf 92       	push	r12
    25f4:	df 92       	push	r13
    25f6:	ef 92       	push	r14
    25f8:	ff 92       	push	r15
    25fa:	0f 93       	push	r16
    25fc:	1f 93       	push	r17
    25fe:	cf 93       	push	r28
    2600:	df 93       	push	r29
    2602:	c4 ed       	ldi	r28, 0xD4	; 212
    2604:	d3 e0       	ldi	r29, 0x03	; 3
    2606:	0e ef       	ldi	r16, 0xFE	; 254
    2608:	13 e0       	ldi	r17, 0x03	; 3
	for(ucTimerEventCnt = 0; ucTimerEventCnt < _MAX_EVENT_AMOUNT; ucTimerEventCnt++)
	{
		if(g_stTimerEvent[ucTimerEventCnt].Time == 0)
		{
			g_bTimer1Ctrl = true;
			g_stTimerEvent[ucTimerEventCnt].Time = _INACTIVE_TIMER_EVENT;
    260a:	cc 24       	eor	r12, r12
    260c:	ca 94       	dec	r12
    260e:	dc 2c       	mov	r13, r12
    2610:	e1 2c       	mov	r14, r1
    2612:	f1 2c       	mov	r15, r1
{
	uint8_t ucTimerEventCnt = 0;

	for(ucTimerEventCnt = 0; ucTimerEventCnt < _MAX_EVENT_AMOUNT; ucTimerEventCnt++)
	{
		if(g_stTimerEvent[ucTimerEventCnt].Time == 0)
    2614:	88 81       	ld	r24, Y
    2616:	99 81       	ldd	r25, Y+1	; 0x01
    2618:	aa 81       	ldd	r26, Y+2	; 0x02
    261a:	bb 81       	ldd	r27, Y+3	; 0x03
    261c:	89 2b       	or	r24, r25
    261e:	8a 2b       	or	r24, r26
    2620:	8b 2b       	or	r24, r27
    2622:	49 f4       	brne	.+18     	; 0x2636 <CTimerHandle+0x44>
		{
			g_bTimer1Ctrl = true;
			g_stTimerEvent[ucTimerEventCnt].Time = _INACTIVE_TIMER_EVENT;
    2624:	c8 82       	st	Y, r12
    2626:	d9 82       	std	Y+1, r13	; 0x01
    2628:	ea 82       	std	Y+2, r14	; 0x02
    262a:	fb 82       	std	Y+3, r15	; 0x03
			g_bTimer1Ctrl = false;
    262c:	10 92 6a 03 	sts	0x036A, r1
			(*g_stTimerEvent[ucTimerEventCnt].Event)();
    2630:	ec 81       	ldd	r30, Y+4	; 0x04
    2632:	fd 81       	ldd	r31, Y+5	; 0x05
    2634:	09 95       	icall
    2636:	26 96       	adiw	r28, 0x06	; 6
//--------------------------------------------------
void CTimerHandle(void)
{
	uint8_t ucTimerEventCnt = 0;

	for(ucTimerEventCnt = 0; ucTimerEventCnt < _MAX_EVENT_AMOUNT; ucTimerEventCnt++)
    2638:	c0 17       	cp	r28, r16
    263a:	d1 07       	cpc	r29, r17
    263c:	59 f7       	brne	.-42     	; 0x2614 <CTimerHandle+0x22>
			g_stTimerEvent[ucTimerEventCnt].Time = _INACTIVE_TIMER_EVENT;
			g_bTimer1Ctrl = false;
			(*g_stTimerEvent[ucTimerEventCnt].Event)();
		}
	}
}
    263e:	df 91       	pop	r29
    2640:	cf 91       	pop	r28
    2642:	1f 91       	pop	r17
    2644:	0f 91       	pop	r16
    2646:	ff 90       	pop	r15
    2648:	ef 90       	pop	r14
    264a:	df 90       	pop	r13
    264c:	cf 90       	pop	r12
    264e:	08 95       	ret

00002650 <CTimerDecreaseTimerCnt>:
// Description  : Decrease timer counts while 10ms Interrupt is up
// Input Value  : None
// Output Value : None
//--------------------------------------------------
void CTimerDecreaseTimerCnt(void)
{
    2650:	cf 93       	push	r28
    2652:	df 93       	push	r29
    2654:	e4 ed       	ldi	r30, 0xD4	; 212
    2656:	f3 e0       	ldi	r31, 0x03	; 3
    2658:	2e ef       	ldi	r18, 0xFE	; 254
    265a:	33 e0       	ldi	r19, 0x03	; 3
	uint8_t ucTimerDecCnt = 0;

	for(ucTimerDecCnt = 0; ucTimerDecCnt < _MAX_EVENT_AMOUNT; ucTimerDecCnt++)
	{
		if((g_stTimerEvent[ucTimerDecCnt].Time != _INACTIVE_TIMER_EVENT) && (g_stTimerEvent[ucTimerDecCnt].Time != 0))
    265c:	80 81       	ld	r24, Z
    265e:	91 81       	ldd	r25, Z+1	; 0x01
    2660:	a2 81       	ldd	r26, Z+2	; 0x02
    2662:	b3 81       	ldd	r27, Z+3	; 0x03
    2664:	8f 3f       	cpi	r24, 0xFF	; 255
    2666:	4f ef       	ldi	r20, 0xFF	; 255
    2668:	94 07       	cpc	r25, r20
    266a:	a1 05       	cpc	r26, r1
    266c:	b1 05       	cpc	r27, r1
    266e:	59 f0       	breq	.+22     	; 0x2686 <CTimerDecreaseTimerCnt+0x36>
    2670:	00 97       	sbiw	r24, 0x00	; 0
    2672:	a1 05       	cpc	r26, r1
    2674:	b1 05       	cpc	r27, r1
    2676:	39 f0       	breq	.+14     	; 0x2686 <CTimerDecreaseTimerCnt+0x36>
		{
			g_stTimerEvent[ucTimerDecCnt].Time--;
    2678:	01 97       	sbiw	r24, 0x01	; 1
    267a:	a1 09       	sbc	r26, r1
    267c:	b1 09       	sbc	r27, r1
    267e:	80 83       	st	Z, r24
    2680:	91 83       	std	Z+1, r25	; 0x01
    2682:	a2 83       	std	Z+2, r26	; 0x02
    2684:	b3 83       	std	Z+3, r27	; 0x03
    2686:	36 96       	adiw	r30, 0x06	; 6
//--------------------------------------------------
void CTimerDecreaseTimerCnt(void)
{
	uint8_t ucTimerDecCnt = 0;

	for(ucTimerDecCnt = 0; ucTimerDecCnt < _MAX_EVENT_AMOUNT; ucTimerDecCnt++)
    2688:	e2 17       	cp	r30, r18
    268a:	f3 07       	cpc	r31, r19
    268c:	39 f7       	brne	.-50     	; 0x265c <CTimerDecreaseTimerCnt+0xc>
		if((g_stTimerEvent[ucTimerDecCnt].Time != _INACTIVE_TIMER_EVENT) && (g_stTimerEvent[ucTimerDecCnt].Time != 0))
		{
			g_stTimerEvent[ucTimerDecCnt].Time--;
		}
	}
}
    268e:	df 91       	pop	r29
    2690:	cf 91       	pop	r28
    2692:	08 95       	ret

00002694 <__vector_13>:

}


ISR(TIMER1_OVF_vect)
{
    2694:	1f 92       	push	r1
    2696:	0f 92       	push	r0
    2698:	0f b6       	in	r0, 0x3f	; 63
    269a:	0f 92       	push	r0
    269c:	11 24       	eor	r1, r1
    269e:	2f 93       	push	r18
    26a0:	3f 93       	push	r19
    26a2:	4f 93       	push	r20
    26a4:	5f 93       	push	r21
    26a6:	6f 93       	push	r22
    26a8:	7f 93       	push	r23
    26aa:	8f 93       	push	r24
    26ac:	9f 93       	push	r25
    26ae:	af 93       	push	r26
    26b0:	bf 93       	push	r27
    26b2:	ef 93       	push	r30
    26b4:	ff 93       	push	r31
	TCNT1 = TimeInterval;
    26b6:	88 e1       	ldi	r24, 0x18	; 24
    26b8:	9c ef       	ldi	r25, 0xFC	; 252
    26ba:	90 93 85 00 	sts	0x0085, r25
    26be:	80 93 84 00 	sts	0x0084, r24
	
	if (true == g_stStatusCmd.bIsTime)
    26c2:	80 91 c0 03 	lds	r24, 0x03C0
    26c6:	88 23       	and	r24, r24
    26c8:	09 f4       	brne	.+2      	; 0x26cc <__vector_13+0x38>
    26ca:	5c c0       	rjmp	.+184    	; 0x2784 <__vector_13+0xf0>
	{
		g_ucTimer1Cnt ++;
    26cc:	80 91 6b 03 	lds	r24, 0x036B
    26d0:	90 91 6c 03 	lds	r25, 0x036C
    26d4:	a0 91 6d 03 	lds	r26, 0x036D
    26d8:	b0 91 6e 03 	lds	r27, 0x036E
    26dc:	bc 01       	movw	r22, r24
    26de:	cd 01       	movw	r24, r26
    26e0:	6f 5f       	subi	r22, 0xFF	; 255
    26e2:	7f 4f       	sbci	r23, 0xFF	; 255
    26e4:	8f 4f       	sbci	r24, 0xFF	; 255
    26e6:	9f 4f       	sbci	r25, 0xFF	; 255
    26e8:	60 93 6b 03 	sts	0x036B, r22
    26ec:	70 93 6c 03 	sts	0x036C, r23
    26f0:	80 93 6d 03 	sts	0x036D, r24
    26f4:	90 93 6e 03 	sts	0x036E, r25
		if (g_ucTimer1Cnt%1000==0)
    26f8:	28 ee       	ldi	r18, 0xE8	; 232
    26fa:	33 e0       	ldi	r19, 0x03	; 3
    26fc:	40 e0       	ldi	r20, 0x00	; 0
    26fe:	50 e0       	ldi	r21, 0x00	; 0
    2700:	0e 94 56 18 	call	0x30ac	; 0x30ac <__udivmodsi4>
    2704:	67 2b       	or	r22, r23
    2706:	68 2b       	or	r22, r24
    2708:	69 2b       	or	r22, r25
    270a:	09 f0       	breq	.+2      	; 0x270e <__vector_13+0x7a>
    270c:	47 c0       	rjmp	.+142    	; 0x279c <__vector_13+0x108>
		{
			g_bTimerChange = true;
    270e:	81 e0       	ldi	r24, 0x01	; 1
    2710:	80 93 69 03 	sts	0x0369, r24
			g_ucTimer1Cnt = 0;
    2714:	10 92 6b 03 	sts	0x036B, r1
    2718:	10 92 6c 03 	sts	0x036C, r1
    271c:	10 92 6d 03 	sts	0x036D, r1
    2720:	10 92 6e 03 	sts	0x036E, r1
			g_ucSecondCnt ++;
    2724:	80 91 67 03 	lds	r24, 0x0367
    2728:	8f 5f       	subi	r24, 0xFF	; 255
    272a:	80 93 67 03 	sts	0x0367, r24
			if (g_ucSecondCnt%60==0)
    272e:	80 91 67 03 	lds	r24, 0x0367
    2732:	99 e8       	ldi	r25, 0x89	; 137
    2734:	89 9f       	mul	r24, r25
    2736:	91 2d       	mov	r25, r1
    2738:	11 24       	eor	r1, r1
    273a:	92 95       	swap	r25
    273c:	96 95       	lsr	r25
    273e:	97 70       	andi	r25, 0x07	; 7
    2740:	2c e3       	ldi	r18, 0x3C	; 60
    2742:	92 9f       	mul	r25, r18
    2744:	80 19       	sub	r24, r0
    2746:	11 24       	eor	r1, r1
    2748:	81 11       	cpse	r24, r1
    274a:	28 c0       	rjmp	.+80     	; 0x279c <__vector_13+0x108>
			{
				g_bTimerChange = true;
    274c:	81 e0       	ldi	r24, 0x01	; 1
    274e:	80 93 69 03 	sts	0x0369, r24
				g_ucSecondCnt = 0;
    2752:	10 92 67 03 	sts	0x0367, r1
				g_ucMinuteCnt ++;
    2756:	80 91 68 03 	lds	r24, 0x0368
    275a:	8f 5f       	subi	r24, 0xFF	; 255
    275c:	80 93 68 03 	sts	0x0368, r24
				if (g_ucMinuteCnt%60==0)
    2760:	80 91 68 03 	lds	r24, 0x0368
    2764:	99 e8       	ldi	r25, 0x89	; 137
    2766:	89 9f       	mul	r24, r25
    2768:	91 2d       	mov	r25, r1
    276a:	11 24       	eor	r1, r1
    276c:	92 95       	swap	r25
    276e:	96 95       	lsr	r25
    2770:	97 70       	andi	r25, 0x07	; 7
    2772:	2c e3       	ldi	r18, 0x3C	; 60
    2774:	92 9f       	mul	r25, r18
    2776:	80 19       	sub	r24, r0
    2778:	11 24       	eor	r1, r1
    277a:	81 11       	cpse	r24, r1
    277c:	0f c0       	rjmp	.+30     	; 0x279c <__vector_13+0x108>
					g_ucMinuteCnt = 0;
    277e:	10 92 68 03 	sts	0x0368, r1
    2782:	0c c0       	rjmp	.+24     	; 0x279c <__vector_13+0x108>
			}
		}
	}
	else
	{
		g_ucTimer1Cnt = 0;
    2784:	10 92 6b 03 	sts	0x036B, r1
    2788:	10 92 6c 03 	sts	0x036C, r1
    278c:	10 92 6d 03 	sts	0x036D, r1
    2790:	10 92 6e 03 	sts	0x036E, r1
		g_ucSecondCnt = 0;
    2794:	10 92 67 03 	sts	0x0367, r1
		g_ucMinuteCnt = 0;
    2798:	10 92 68 03 	sts	0x0368, r1
	}

	if((PIND & KEY_MASK_WIDE)&&(g_ucWideKeyPress))
    279c:	4c 9b       	sbis	0x09, 4	; 9
    279e:	09 c0       	rjmp	.+18     	; 0x27b2 <__vector_13+0x11e>
    27a0:	80 91 55 03 	lds	r24, 0x0355
    27a4:	88 23       	and	r24, r24
    27a6:	29 f0       	breq	.+10     	; 0x27b2 <__vector_13+0x11e>
	{
		g_ucWideKeyPress = false;
    27a8:	10 92 55 03 	sts	0x0355, r1
		g_ucWideKeyRelease = true;
    27ac:	81 e0       	ldi	r24, 0x01	; 1
    27ae:	80 93 54 03 	sts	0x0354, r24
	}

	if((PINC & KEY_MASK_TELE)&&(g_ucTeleKeyPress))
    27b2:	35 9b       	sbis	0x06, 5	; 6
    27b4:	09 c0       	rjmp	.+18     	; 0x27c8 <__vector_13+0x134>
    27b6:	80 91 53 03 	lds	r24, 0x0353
    27ba:	88 23       	and	r24, r24
    27bc:	29 f0       	breq	.+10     	; 0x27c8 <__vector_13+0x134>
	{
		g_ucTeleKeyPress = false;
    27be:	10 92 53 03 	sts	0x0353, r1
		g_ucTeleKeyRelease = true;
    27c2:	81 e0       	ldi	r24, 0x01	; 1
    27c4:	80 93 52 03 	sts	0x0352, r24

	}

	
	if (!g_bTimer1Ctrl)
    27c8:	80 91 6a 03 	lds	r24, 0x036A
    27cc:	81 11       	cpse	r24, r1
    27ce:	02 c0       	rjmp	.+4      	; 0x27d4 <__vector_13+0x140>
	{
		CTimerDecreaseTimerCnt();
    27d0:	0e 94 28 13 	call	0x2650	; 0x2650 <CTimerDecreaseTimerCnt>
	}

}
    27d4:	ff 91       	pop	r31
    27d6:	ef 91       	pop	r30
    27d8:	bf 91       	pop	r27
    27da:	af 91       	pop	r26
    27dc:	9f 91       	pop	r25
    27de:	8f 91       	pop	r24
    27e0:	7f 91       	pop	r23
    27e2:	6f 91       	pop	r22
    27e4:	5f 91       	pop	r21
    27e6:	4f 91       	pop	r20
    27e8:	3f 91       	pop	r19
    27ea:	2f 91       	pop	r18
    27ec:	0f 90       	pop	r0
    27ee:	0f be       	out	0x3f, r0	; 63
    27f0:	0f 90       	pop	r0
    27f2:	1f 90       	pop	r1
    27f4:	18 95       	reti

000027f6 <CTimerActiveTimerEvent>:
// Input Value  : usTime    --> Unit in 10ms, range in 0.01 ~ 655.3 sec
//                Event     --> Execute Event while timeup
// Output Value : None
//--------------------------------------------------
void CTimerActiveTimerEvent(uint32_t usTime, void (*Event)())
{
    27f6:	cf 92       	push	r12
    27f8:	df 92       	push	r13
    27fa:	ef 92       	push	r14
    27fc:	ff 92       	push	r15
    27fe:	0f 93       	push	r16
    2800:	1f 93       	push	r17
    2802:	cf 93       	push	r28
    2804:	df 93       	push	r29
    2806:	e4 ed       	ldi	r30, 0xD4	; 212
    2808:	f3 e0       	ldi	r31, 0x03	; 3
    280a:	2e ef       	ldi	r18, 0xFE	; 254
    280c:	33 e0       	ldi	r19, 0x03	; 3
	uint8_t ucTimerEventCnt = 0;

	for(ucTimerEventCnt = 0; ucTimerEventCnt < _MAX_EVENT_AMOUNT; ucTimerEventCnt++)
	{
		if((g_stTimerEvent[ucTimerEventCnt].Time != _INACTIVE_TIMER_EVENT) && (g_stTimerEvent[ucTimerEventCnt].Event == Event))
    280e:	c0 80       	ld	r12, Z
    2810:	d1 80       	ldd	r13, Z+1	; 0x01
    2812:	e2 80       	ldd	r14, Z+2	; 0x02
    2814:	f3 80       	ldd	r15, Z+3	; 0x03
    2816:	af ef       	ldi	r26, 0xFF	; 255
    2818:	ca 16       	cp	r12, r26
    281a:	da 06       	cpc	r13, r26
    281c:	e1 04       	cpc	r14, r1
    281e:	f1 04       	cpc	r15, r1
    2820:	29 f0       	breq	.+10     	; 0x282c <CTimerActiveTimerEvent+0x36>
    2822:	a4 81       	ldd	r26, Z+4	; 0x04
    2824:	b5 81       	ldd	r27, Z+5	; 0x05
    2826:	a4 17       	cp	r26, r20
    2828:	b5 07       	cpc	r27, r21
    282a:	e1 f1       	breq	.+120    	; 0x28a4 <CTimerActiveTimerEvent+0xae>
    282c:	36 96       	adiw	r30, 0x06	; 6
//--------------------------------------------------
void CTimerActiveTimerEvent(uint32_t usTime, void (*Event)())
{
	uint8_t ucTimerEventCnt = 0;

	for(ucTimerEventCnt = 0; ucTimerEventCnt < _MAX_EVENT_AMOUNT; ucTimerEventCnt++)
    282e:	e2 17       	cp	r30, r18
    2830:	f3 07       	cpc	r31, r19
    2832:	69 f7       	brne	.-38     	; 0x280e <CTimerActiveTimerEvent+0x18>
		}
	}

	for(ucTimerEventCnt = 0; ucTimerEventCnt < _MAX_EVENT_AMOUNT; ucTimerEventCnt++)
	{
		if(g_stTimerEvent[ucTimerEventCnt].Time == _INACTIVE_TIMER_EVENT)
    2834:	00 91 d4 03 	lds	r16, 0x03D4
    2838:	10 91 d5 03 	lds	r17, 0x03D5
    283c:	20 91 d6 03 	lds	r18, 0x03D6
    2840:	30 91 d7 03 	lds	r19, 0x03D7
    2844:	0f 3f       	cpi	r16, 0xFF	; 255
    2846:	1f 4f       	sbci	r17, 0xFF	; 255
    2848:	21 05       	cpc	r18, r1
    284a:	31 05       	cpc	r19, r1
    284c:	81 f0       	breq	.+32     	; 0x286e <CTimerActiveTimerEvent+0x78>
    284e:	ea ed       	ldi	r30, 0xDA	; 218
    2850:	f3 e0       	ldi	r31, 0x03	; 3
    2852:	21 e0       	ldi	r18, 0x01	; 1
    2854:	30 e0       	ldi	r19, 0x00	; 0
    2856:	e9 01       	movw	r28, r18
    2858:	c0 80       	ld	r12, Z
    285a:	d1 80       	ldd	r13, Z+1	; 0x01
    285c:	e2 80       	ldd	r14, Z+2	; 0x02
    285e:	f3 80       	ldd	r15, Z+3	; 0x03
    2860:	af ef       	ldi	r26, 0xFF	; 255
    2862:	ca 16       	cp	r12, r26
    2864:	da 06       	cpc	r13, r26
    2866:	e1 04       	cpc	r14, r1
    2868:	f1 04       	cpc	r15, r1
    286a:	b1 f4       	brne	.+44     	; 0x2898 <CTimerActiveTimerEvent+0xa2>
    286c:	02 c0       	rjmp	.+4      	; 0x2872 <CTimerActiveTimerEvent+0x7c>
    286e:	c0 e0       	ldi	r28, 0x00	; 0
    2870:	d0 e0       	ldi	r29, 0x00	; 0
		{
			g_bTimer1Ctrl = true;
			g_stTimerEvent[ucTimerEventCnt].Time = usTime;
    2872:	9e 01       	movw	r18, r28
    2874:	22 0f       	add	r18, r18
    2876:	33 1f       	adc	r19, r19
    2878:	f9 01       	movw	r30, r18
    287a:	ec 0f       	add	r30, r28
    287c:	fd 1f       	adc	r31, r29
    287e:	ee 0f       	add	r30, r30
    2880:	ff 1f       	adc	r31, r31
    2882:	ec 52       	subi	r30, 0x2C	; 44
    2884:	fc 4f       	sbci	r31, 0xFC	; 252
    2886:	60 83       	st	Z, r22
    2888:	71 83       	std	Z+1, r23	; 0x01
    288a:	82 83       	std	Z+2, r24	; 0x02
    288c:	93 83       	std	Z+3, r25	; 0x03
			g_bTimer1Ctrl = false;
    288e:	10 92 6a 03 	sts	0x036A, r1
			g_stTimerEvent[ucTimerEventCnt].Event = Event;
    2892:	55 83       	std	Z+5, r21	; 0x05
    2894:	44 83       	std	Z+4, r20	; 0x04
			break;
    2896:	06 c0       	rjmp	.+12     	; 0x28a4 <CTimerActiveTimerEvent+0xae>
    2898:	2f 5f       	subi	r18, 0xFF	; 255
    289a:	3f 4f       	sbci	r19, 0xFF	; 255
    289c:	36 96       	adiw	r30, 0x06	; 6
		{
			return;
		}
	}

	for(ucTimerEventCnt = 0; ucTimerEventCnt < _MAX_EVENT_AMOUNT; ucTimerEventCnt++)
    289e:	27 30       	cpi	r18, 0x07	; 7
    28a0:	31 05       	cpc	r19, r1
    28a2:	c9 f6       	brne	.-78     	; 0x2856 <CTimerActiveTimerEvent+0x60>
			g_bTimer1Ctrl = false;
			g_stTimerEvent[ucTimerEventCnt].Event = Event;
			break;
		}
	}
}
    28a4:	df 91       	pop	r29
    28a6:	cf 91       	pop	r28
    28a8:	1f 91       	pop	r17
    28aa:	0f 91       	pop	r16
    28ac:	ff 90       	pop	r15
    28ae:	ef 90       	pop	r14
    28b0:	df 90       	pop	r13
    28b2:	cf 90       	pop	r12
    28b4:	08 95       	ret

000028b6 <CTimerReactiveTimerEvent>:
// Input Value  : usTime    --> Unit in 10ms, range in 0.01 ~ 655.3 sec
//                Event     --> Execute Event while timeup
// Output Value : None
//--------------------------------------------------
void CTimerReactiveTimerEvent(uint32_t usTime, void (*Event)())
{
    28b6:	cf 92       	push	r12
    28b8:	df 92       	push	r13
    28ba:	ef 92       	push	r14
    28bc:	ff 92       	push	r15
    28be:	cf 93       	push	r28
    28c0:	df 93       	push	r29
    28c2:	e4 ed       	ldi	r30, 0xD4	; 212
    28c4:	f3 e0       	ldi	r31, 0x03	; 3
    28c6:	20 e0       	ldi	r18, 0x00	; 0
    28c8:	30 e0       	ldi	r19, 0x00	; 0
	uint8_t ucTimerEventCnt = 0;

	for(ucTimerEventCnt = 0; ucTimerEventCnt < _MAX_EVENT_AMOUNT; ucTimerEventCnt++)
	{
		if((g_stTimerEvent[ucTimerEventCnt].Time != _INACTIVE_TIMER_EVENT) && (g_stTimerEvent[ucTimerEventCnt].Event == Event))
    28ca:	e9 01       	movw	r28, r18
    28cc:	c0 80       	ld	r12, Z
    28ce:	d1 80       	ldd	r13, Z+1	; 0x01
    28d0:	e2 80       	ldd	r14, Z+2	; 0x02
    28d2:	f3 80       	ldd	r15, Z+3	; 0x03
    28d4:	af ef       	ldi	r26, 0xFF	; 255
    28d6:	ca 16       	cp	r12, r26
    28d8:	da 06       	cpc	r13, r26
    28da:	e1 04       	cpc	r14, r1
    28dc:	f1 04       	cpc	r15, r1
    28de:	a1 f0       	breq	.+40     	; 0x2908 <CTimerReactiveTimerEvent+0x52>
    28e0:	a4 81       	ldd	r26, Z+4	; 0x04
    28e2:	b5 81       	ldd	r27, Z+5	; 0x05
    28e4:	a4 17       	cp	r26, r20
    28e6:	b5 07       	cpc	r27, r21
    28e8:	79 f4       	brne	.+30     	; 0x2908 <CTimerReactiveTimerEvent+0x52>
		{
			g_bTimer1Ctrl = true;
			g_stTimerEvent[ucTimerEventCnt].Time = usTime;
    28ea:	22 0f       	add	r18, r18
    28ec:	33 1f       	adc	r19, r19
    28ee:	c2 0f       	add	r28, r18
    28f0:	d3 1f       	adc	r29, r19
    28f2:	cc 0f       	add	r28, r28
    28f4:	dd 1f       	adc	r29, r29
    28f6:	cc 52       	subi	r28, 0x2C	; 44
    28f8:	dc 4f       	sbci	r29, 0xFC	; 252
    28fa:	68 83       	st	Y, r22
    28fc:	79 83       	std	Y+1, r23	; 0x01
    28fe:	8a 83       	std	Y+2, r24	; 0x02
    2900:	9b 83       	std	Y+3, r25	; 0x03
			g_bTimer1Ctrl = false;
    2902:	10 92 6a 03 	sts	0x036A, r1
			return;
    2906:	08 c0       	rjmp	.+16     	; 0x2918 <CTimerReactiveTimerEvent+0x62>
    2908:	2f 5f       	subi	r18, 0xFF	; 255
    290a:	3f 4f       	sbci	r19, 0xFF	; 255
    290c:	36 96       	adiw	r30, 0x06	; 6
//--------------------------------------------------
void CTimerReactiveTimerEvent(uint32_t usTime, void (*Event)())
{
	uint8_t ucTimerEventCnt = 0;

	for(ucTimerEventCnt = 0; ucTimerEventCnt < _MAX_EVENT_AMOUNT; ucTimerEventCnt++)
    290e:	27 30       	cpi	r18, 0x07	; 7
    2910:	31 05       	cpc	r19, r1
    2912:	d9 f6       	brne	.-74     	; 0x28ca <CTimerReactiveTimerEvent+0x14>
			g_bTimer1Ctrl = false;
			return;
		}
	}

	CTimerActiveTimerEvent(usTime, Event);
    2914:	0e 94 fb 13 	call	0x27f6	; 0x27f6 <CTimerActiveTimerEvent>
}
    2918:	df 91       	pop	r29
    291a:	cf 91       	pop	r28
    291c:	ff 90       	pop	r15
    291e:	ef 90       	pop	r14
    2920:	df 90       	pop	r13
    2922:	cf 90       	pop	r12
    2924:	08 95       	ret

00002926 <CTimerCancelTimerEvent>:
// Description  : Cancel an event
// Input Value  : Event     --> Event which we want to cancel
// Output Value : None
//--------------------------------------------------
void CTimerCancelTimerEvent(void (*Event)())
{
    2926:	cf 93       	push	r28
    2928:	df 93       	push	r29
    292a:	c0 91 6a 03 	lds	r28, 0x036A
    292e:	e4 ed       	ldi	r30, 0xD4	; 212
    2930:	f3 e0       	ldi	r31, 0x03	; 3
    2932:	ae ef       	ldi	r26, 0xFE	; 254
    2934:	b3 e0       	ldi	r27, 0x03	; 3
	for(ucTimerEventCnt = 0; ucTimerEventCnt < _MAX_EVENT_AMOUNT; ucTimerEventCnt++)
	{
		if(g_stTimerEvent[ucTimerEventCnt].Event == Event)
		{
			g_bTimer1Ctrl = true;
			g_stTimerEvent[ucTimerEventCnt].Time = _INACTIVE_TIMER_EVENT;
    2936:	4f ef       	ldi	r20, 0xFF	; 255
    2938:	5f ef       	ldi	r21, 0xFF	; 255
    293a:	60 e0       	ldi	r22, 0x00	; 0
    293c:	70 e0       	ldi	r23, 0x00	; 0
			g_bTimer1Ctrl = false;
    293e:	d0 e0       	ldi	r29, 0x00	; 0
{
	uint8_t ucTimerEventCnt = 0;

	for(ucTimerEventCnt = 0; ucTimerEventCnt < _MAX_EVENT_AMOUNT; ucTimerEventCnt++)
	{
		if(g_stTimerEvent[ucTimerEventCnt].Event == Event)
    2940:	24 81       	ldd	r18, Z+4	; 0x04
    2942:	35 81       	ldd	r19, Z+5	; 0x05
    2944:	28 17       	cp	r18, r24
    2946:	39 07       	cpc	r19, r25
    2948:	29 f4       	brne	.+10     	; 0x2954 <CTimerCancelTimerEvent+0x2e>
		{
			g_bTimer1Ctrl = true;
			g_stTimerEvent[ucTimerEventCnt].Time = _INACTIVE_TIMER_EVENT;
    294a:	40 83       	st	Z, r20
    294c:	51 83       	std	Z+1, r21	; 0x01
    294e:	62 83       	std	Z+2, r22	; 0x02
    2950:	73 83       	std	Z+3, r23	; 0x03
			g_bTimer1Ctrl = false;
    2952:	cd 2f       	mov	r28, r29
    2954:	36 96       	adiw	r30, 0x06	; 6
//--------------------------------------------------
void CTimerCancelTimerEvent(void (*Event)())
{
	uint8_t ucTimerEventCnt = 0;

	for(ucTimerEventCnt = 0; ucTimerEventCnt < _MAX_EVENT_AMOUNT; ucTimerEventCnt++)
    2956:	ea 17       	cp	r30, r26
    2958:	fb 07       	cpc	r31, r27
    295a:	91 f7       	brne	.-28     	; 0x2940 <CTimerCancelTimerEvent+0x1a>
    295c:	c0 93 6a 03 	sts	0x036A, r28
			g_bTimer1Ctrl = false;

		}
	}

}
    2960:	df 91       	pop	r29
    2962:	cf 91       	pop	r28
    2964:	08 95       	ret

00002966 <CTimerInitialTimerEvent>:
// Description  : Initial timer and events. We have to run this function at firmware startup
// Input Value  : None
// Output Value : None
//--------------------------------------------------
void CTimerInitialTimerEvent(void)
{
    2966:	e4 ed       	ldi	r30, 0xD4	; 212
    2968:	f3 e0       	ldi	r31, 0x03	; 3
    296a:	2e ef       	ldi	r18, 0xFE	; 254
    296c:	33 e0       	ldi	r19, 0x03	; 3
	uint8_t ucTimerEventCnt = 0;

	for(ucTimerEventCnt = 0; ucTimerEventCnt < _MAX_EVENT_AMOUNT; ucTimerEventCnt++)
	{
		g_stTimerEvent[ucTimerEventCnt].Time = _INACTIVE_TIMER_EVENT;
    296e:	8f ef       	ldi	r24, 0xFF	; 255
    2970:	9f ef       	ldi	r25, 0xFF	; 255
    2972:	a0 e0       	ldi	r26, 0x00	; 0
    2974:	b0 e0       	ldi	r27, 0x00	; 0
    2976:	80 83       	st	Z, r24
    2978:	91 83       	std	Z+1, r25	; 0x01
    297a:	a2 83       	std	Z+2, r26	; 0x02
    297c:	b3 83       	std	Z+3, r27	; 0x03
    297e:	36 96       	adiw	r30, 0x06	; 6
//--------------------------------------------------
void CTimerInitialTimerEvent(void)
{
	uint8_t ucTimerEventCnt = 0;

	for(ucTimerEventCnt = 0; ucTimerEventCnt < _MAX_EVENT_AMOUNT; ucTimerEventCnt++)
    2980:	e2 17       	cp	r30, r18
    2982:	f3 07       	cpc	r31, r19
    2984:	c1 f7       	brne	.-16     	; 0x2976 <CTimerInitialTimerEvent+0x10>
	{
		g_stTimerEvent[ucTimerEventCnt].Time = _INACTIVE_TIMER_EVENT;
	}
}
    2986:	08 95       	ret

00002988 <SetTitle2>:
bool g_bTitle1Change = false;
bool g_bTitle2Change = false;


void SetTitle2(void)
{
    2988:	cf 93       	push	r28
    298a:	df 93       	push	r29
    298c:	cd b7       	in	r28, 0x3d	; 61
    298e:	de b7       	in	r29, 0x3e	; 62
    2990:	2a 97       	sbiw	r28, 0x0a	; 10
    2992:	0f b6       	in	r0, 0x3f	; 63
    2994:	f8 94       	cli
    2996:	de bf       	out	0x3e, r29	; 62
    2998:	0f be       	out	0x3f, r0	; 63
    299a:	cd bf       	out	0x3d, r28	; 61
	uint8_t i = 0;
	uint8_t j = 0;
	#if(_CCD_TYPE_CODE == _CCD_7500)
	uint8_t uiTitle[10] = {0x20,0x20,0x20,0x20,0x20,0x20,0x20,0x20,0x20,0x20};//space
	#else
	uint8_t uiTitle[10] = {0x1b,0x1b,0x1b,0x1b,0x1b,0x1b,0x1b,0x1b,0x1b,0x1b};//space
    299c:	8a e0       	ldi	r24, 0x0A	; 10
    299e:	eb e6       	ldi	r30, 0x6B	; 107
    29a0:	f2 e0       	ldi	r31, 0x02	; 2
    29a2:	de 01       	movw	r26, r28
    29a4:	11 96       	adiw	r26, 0x01	; 1
    29a6:	01 90       	ld	r0, Z+
    29a8:	0d 92       	st	X+, r0
    29aa:	8a 95       	dec	r24
    29ac:	e1 f7       	brne	.-8      	; 0x29a6 <SetTitle2+0x1e>
	#endif

	#if(_EM_KEY == 1)
	// if display EM flip
	if (g_stStatusCmd.FlipMode == _FLIP_MODE_ON)
    29ae:	80 91 c6 03 	lds	r24, 0x03C6
    29b2:	81 30       	cpi	r24, 0x01	; 1
    29b4:	59 f4       	brne	.+22     	; 0x29cc <SetTitle2+0x44>
			uiTitle[7] = 'I'; //
			uiTitle[8] = 'P'; //
			uiTitle[9] = ' '; //

			#else
			uiTitle[5] = 0x05; //F
    29b6:	85 e0       	ldi	r24, 0x05	; 5
    29b8:	8e 83       	std	Y+6, r24	; 0x06
			uiTitle[6] = 0x0B; //L
    29ba:	8b e0       	ldi	r24, 0x0B	; 11
    29bc:	8f 83       	std	Y+7, r24	; 0x07
			uiTitle[7] = 0x08; //I
    29be:	88 e0       	ldi	r24, 0x08	; 8
    29c0:	88 87       	std	Y+8, r24	; 0x08
			uiTitle[8] = 0x0F; //P
    29c2:	8f e0       	ldi	r24, 0x0F	; 15
    29c4:	89 87       	std	Y+9, r24	; 0x09
			uiTitle[9] = 0x1b; // 
    29c6:	8b e1       	ldi	r24, 0x1B	; 27
    29c8:	8a 87       	std	Y+10, r24	; 0x0a
    29ca:	0b c0       	rjmp	.+22     	; 0x29e2 <SetTitle2+0x5a>
			#endif
		#endif

	}
	else if(g_stStatusCmd.FlipMode == _MIRROR_MODE_ON)
    29cc:	83 30       	cpi	r24, 0x03	; 3
    29ce:	49 f4       	brne	.+18     	; 0x29e2 <SetTitle2+0x5a>
			uiTitle[6] = 'M'; //
			uiTitle[7] = 'A'; //
			uiTitle[8] = 'G'; //
			uiTitle[9] = 'E'; //
			#else
			uiTitle[5] = 0x08; //I
    29d0:	88 e0       	ldi	r24, 0x08	; 8
    29d2:	8e 83       	std	Y+6, r24	; 0x06
			uiTitle[6] = 0x0C; //M
    29d4:	8c e0       	ldi	r24, 0x0C	; 12
    29d6:	8f 83       	std	Y+7, r24	; 0x07
			uiTitle[7] = 0x00; //A
    29d8:	18 86       	std	Y+8, r1	; 0x08
			uiTitle[8] = 0x06; //G
    29da:	86 e0       	ldi	r24, 0x06	; 6
    29dc:	89 87       	std	Y+9, r24	; 0x09
			uiTitle[9] = 0x04; //E
    29de:	84 e0       	ldi	r24, 0x04	; 4
    29e0:	8a 87       	std	Y+10, r24	; 0x0a
	}
	#endif
	
	// if display X08

	if ((true == g_stStatusCmd.bIsDisplay)&&(_DISPLAY_ZOOM& g_stStatusCmd.uiDisplayFlag))
    29e2:	80 91 be 03 	lds	r24, 0x03BE
    29e6:	88 23       	and	r24, r24
    29e8:	e1 f0       	breq	.+56     	; 0x2a22 <SetTitle2+0x9a>
    29ea:	80 91 bf 03 	lds	r24, 0x03BF
    29ee:	80 ff       	sbrs	r24, 0
    29f0:	18 c0       	rjmp	.+48     	; 0x2a22 <SetTitle2+0x9a>
	{
		i = (g_stStatusCmd.uiXRate+1)/10;
    29f2:	20 91 ac 03 	lds	r18, 0x03AC
    29f6:	82 2f       	mov	r24, r18
    29f8:	90 e0       	ldi	r25, 0x00	; 0
    29fa:	01 96       	adiw	r24, 0x01	; 1
		j = (g_stStatusCmd.uiXRate+1)%10;
		#if(_CCD_TYPE_CODE == _CCD_7500)
		uiTitle[1] = 'X'; //0x58
		#else
		uiTitle[1] = 0x17; //X
    29fc:	37 e1       	ldi	r19, 0x17	; 23
    29fe:	3a 83       	std	Y+2, r19	; 0x02
	
	// if display X08

	if ((true == g_stStatusCmd.bIsDisplay)&&(_DISPLAY_ZOOM& g_stStatusCmd.uiDisplayFlag))
	{
		i = (g_stStatusCmd.uiXRate+1)/10;
    2a00:	6a e0       	ldi	r22, 0x0A	; 10
    2a02:	70 e0       	ldi	r23, 0x00	; 0
    2a04:	0e 94 42 18 	call	0x3084	; 0x3084 <__divmodhi4>
		#if(_CCD_TYPE_CODE == _CCD_7500)
		uiTitle[1] = 'X'; //0x58
		#else
		uiTitle[1] = 0x17; //X
		#endif
		uiTitle[2] = uiNumberTable[i];
    2a08:	77 27       	eor	r23, r23
    2a0a:	fb 01       	movw	r30, r22
    2a0c:	e9 5b       	subi	r30, 0xB9	; 185
    2a0e:	fd 4f       	sbci	r31, 0xFD	; 253
    2a10:	30 81       	ld	r19, Z
    2a12:	3b 83       	std	Y+3, r19	; 0x03
		uiTitle[3] = uiNumberTable[j];
    2a14:	fc 01       	movw	r30, r24
    2a16:	e9 5b       	subi	r30, 0xB9	; 185
    2a18:	fd 4f       	sbci	r31, 0xFD	; 253
    2a1a:	80 81       	ld	r24, Z
    2a1c:	8c 83       	std	Y+4, r24	; 0x04
		g_stStatusCmd.uiXRateShow = g_stStatusCmd.uiXRate;
    2a1e:	20 93 ad 03 	sts	0x03AD, r18
	{

	}
		
	// if display MF-0
	if ((_FOCUS_MODE_MANUAL == g_stStatusCmd.FocusMode)&&(_DISPLAY_FOCUS& g_stStatusCmd.uiDisplayFlag))
    2a22:	80 91 b5 03 	lds	r24, 0x03B5
    2a26:	81 30       	cpi	r24, 0x01	; 1
    2a28:	a1 f4       	brne	.+40     	; 0x2a52 <SetTitle2+0xca>
    2a2a:	80 91 bf 03 	lds	r24, 0x03BF
    2a2e:	85 ff       	sbrs	r24, 5
    2a30:	10 c0       	rjmp	.+32     	; 0x2a52 <SetTitle2+0xca>
			#if(_CCD_TYPE_CODE == _CCD_7500)
			uiTitle[5] = 'M'; //0x4D
			uiTitle[6] = 'F'; //0x46
			uiTitle[7] = '-'; //0x2D
			#else
			uiTitle[5] = 0x0c; //M
    2a32:	8c e0       	ldi	r24, 0x0C	; 12
    2a34:	8e 83       	std	Y+6, r24	; 0x06
			uiTitle[6] = 0x05; //F
    2a36:	85 e0       	ldi	r24, 0x05	; 5
    2a38:	8f 83       	std	Y+7, r24	; 0x07
			uiTitle[7] = 0x4f; //-
    2a3a:	8f e4       	ldi	r24, 0x4F	; 79
    2a3c:	88 87       	std	Y+8, r24	; 0x08
			#endif
			uiTitle[8] = uiNumberTable[g_stStatusCmd.uiMF];
    2a3e:	80 91 ae 03 	lds	r24, 0x03AE
    2a42:	e8 2f       	mov	r30, r24
    2a44:	f0 e0       	ldi	r31, 0x00	; 0
    2a46:	e9 5b       	subi	r30, 0xB9	; 185
    2a48:	fd 4f       	sbci	r31, 0xFD	; 253
    2a4a:	90 81       	ld	r25, Z
    2a4c:	99 87       	std	Y+9, r25	; 0x09
			g_stStatusCmd.uiMFShow = g_stStatusCmd.uiMF;
    2a4e:	80 93 af 03 	sts	0x03AF, r24

	}
	
	
	// if display still
	if ((true == g_stStatusCmd.bIsStill)&&(_DISPLAY_STILL& g_stStatusCmd.uiDisplayFlag))
    2a52:	80 91 c1 03 	lds	r24, 0x03C1
    2a56:	88 23       	and	r24, r24
    2a58:	69 f0       	breq	.+26     	; 0x2a74 <SetTitle2+0xec>
    2a5a:	80 91 bf 03 	lds	r24, 0x03BF
    2a5e:	83 ff       	sbrs	r24, 3
    2a60:	09 c0       	rjmp	.+18     	; 0x2a74 <SetTitle2+0xec>
			uiTitle[6] = 'T'; //
			uiTitle[7] = 'I'; //
			uiTitle[8] = 'L'; //
			uiTitle[9] = 'L'; //
			#else
			uiTitle[5] = 0x12; //S
    2a62:	82 e1       	ldi	r24, 0x12	; 18
    2a64:	8e 83       	std	Y+6, r24	; 0x06
			uiTitle[6] = 0x13; //T
    2a66:	83 e1       	ldi	r24, 0x13	; 19
    2a68:	8f 83       	std	Y+7, r24	; 0x07
			uiTitle[7] = 0x08; //I
    2a6a:	88 e0       	ldi	r24, 0x08	; 8
    2a6c:	88 87       	std	Y+8, r24	; 0x08
			uiTitle[8] = 0x0B; //L
    2a6e:	8b e0       	ldi	r24, 0x0B	; 11
    2a70:	89 87       	std	Y+9, r24	; 0x09
			uiTitle[9] = 0x0B; //L
    2a72:	8a 87       	std	Y+10, r24	; 0x0a
		_delay_ms(300);
		#endif
	}

	// if display WB
	if (g_stStatusCmd.WBMode == _WB_MODE_AUTO)
    2a74:	80 91 c7 03 	lds	r24, 0x03C7
    2a78:	81 30       	cpi	r24, 0x01	; 1
    2a7a:	81 f4       	brne	.+32     	; 0x2a9c <SetTitle2+0x114>
		uiTitle[5] = '-'; //0x2D
		uiTitle[6] = 'A'; //0x41
		uiTitle[7] = 'T'; //0x54
		uiTitle[8] = 'W'; //0x57
		#else
		uiTitle[0] = 0x16; //W
    2a7c:	86 e1       	ldi	r24, 0x16	; 22
    2a7e:	89 83       	std	Y+1, r24	; 0x01
		uiTitle[1] = 0x4A; //:
    2a80:	9a e4       	ldi	r25, 0x4A	; 74
    2a82:	9a 83       	std	Y+2, r25	; 0x02
		uiTitle[2] = 0x00; //A
    2a84:	1b 82       	std	Y+3, r1	; 0x03
		uiTitle[3] = 0x03; //D
    2a86:	93 e0       	ldi	r25, 0x03	; 3
    2a88:	9c 83       	std	Y+4, r25	; 0x04
		uiTitle[4] = 0x09; //J
    2a8a:	99 e0       	ldi	r25, 0x09	; 9
    2a8c:	9d 83       	std	Y+5, r25	; 0x05
		uiTitle[5] = 0x4F; //-
    2a8e:	9f e4       	ldi	r25, 0x4F	; 79
    2a90:	9e 83       	std	Y+6, r25	; 0x06
		uiTitle[6] = 0x00; //A
    2a92:	1f 82       	std	Y+7, r1	; 0x07
		uiTitle[7] = 0x13; //T
    2a94:	93 e1       	ldi	r25, 0x13	; 19
    2a96:	98 87       	std	Y+8, r25	; 0x08
		uiTitle[8] = 0x16; //W
    2a98:	89 87       	std	Y+9, r24	; 0x09
    2a9a:	13 c0       	rjmp	.+38     	; 0x2ac2 <SetTitle2+0x13a>
		#endif
	}
	else if(g_stStatusCmd.WBMode == _WB_MODE_MANUAL_B || g_stStatusCmd.WBMode == _WB_MODE_MANUAL_R)
    2a9c:	82 50       	subi	r24, 0x02	; 2
    2a9e:	82 30       	cpi	r24, 0x02	; 2
    2aa0:	80 f4       	brcc	.+32     	; 0x2ac2 <SetTitle2+0x13a>
		uiTitle[5] = '-'; //0x2D
		uiTitle[6] = 'M'; //0x4D
		uiTitle[7] = 'A'; //0x41
		uiTitle[8] = 'N'; //0x4E
		#else
		uiTitle[0] = 0x16; //W
    2aa2:	86 e1       	ldi	r24, 0x16	; 22
    2aa4:	89 83       	std	Y+1, r24	; 0x01
		uiTitle[1] = 0x4A; //:
    2aa6:	8a e4       	ldi	r24, 0x4A	; 74
    2aa8:	8a 83       	std	Y+2, r24	; 0x02
		uiTitle[2] = 0x00; //A
    2aaa:	1b 82       	std	Y+3, r1	; 0x03
		uiTitle[3] = 0x03; //D
    2aac:	83 e0       	ldi	r24, 0x03	; 3
    2aae:	8c 83       	std	Y+4, r24	; 0x04
		uiTitle[4] = 0x09; //J
    2ab0:	89 e0       	ldi	r24, 0x09	; 9
    2ab2:	8d 83       	std	Y+5, r24	; 0x05
		uiTitle[5] = 0x4F; //-
    2ab4:	8f e4       	ldi	r24, 0x4F	; 79
    2ab6:	8e 83       	std	Y+6, r24	; 0x06
		uiTitle[6] = 0x0C; //M
    2ab8:	8c e0       	ldi	r24, 0x0C	; 12
    2aba:	8f 83       	std	Y+7, r24	; 0x07
		uiTitle[7] = 0x00; //A
    2abc:	18 86       	std	Y+8, r1	; 0x08
		uiTitle[8] = 0x0D; //N
    2abe:	8d e0       	ldi	r24, 0x0D	; 13
    2ac0:	89 87       	std	Y+9, r24	; 0x09
	
	#if(_CCD_TYPE_CODE == _CCD_7500)
	_delay_ms(100);
	#endif

		CAM_SetTitleSet2(g_stStatusCmd.titleDis.uiTitleVPos, uiTitle);
    2ac2:	be 01       	movw	r22, r28
    2ac4:	6f 5f       	subi	r22, 0xFF	; 255
    2ac6:	7f 4f       	sbci	r23, 0xFF	; 255
    2ac8:	80 91 b0 03 	lds	r24, 0x03B0
    2acc:	0e 94 dd 03 	call	0x7ba	; 0x7ba <CAM_SetTitleSet2>
	#if(_CCD_TYPE_CODE == _CCD_7500)
	_delay_ms(100);
	#endif
}
    2ad0:	2a 96       	adiw	r28, 0x0a	; 10
    2ad2:	0f b6       	in	r0, 0x3f	; 63
    2ad4:	f8 94       	cli
    2ad6:	de bf       	out	0x3e, r29	; 62
    2ad8:	0f be       	out	0x3f, r0	; 63
    2ada:	cd bf       	out	0x3d, r28	; 61
    2adc:	df 91       	pop	r29
    2ade:	cf 91       	pop	r28
    2ae0:	08 95       	ret

00002ae2 <SetTitle3>:

void SetTitle3(void)
{
    2ae2:	cf 93       	push	r28
    2ae4:	df 93       	push	r29
    2ae6:	cd b7       	in	r28, 0x3d	; 61
    2ae8:	de b7       	in	r29, 0x3e	; 62
    2aea:	2a 97       	sbiw	r28, 0x0a	; 10
    2aec:	0f b6       	in	r0, 0x3f	; 63
    2aee:	f8 94       	cli
    2af0:	de bf       	out	0x3e, r29	; 62
    2af2:	0f be       	out	0x3f, r0	; 63
    2af4:	cd bf       	out	0x3d, r28	; 61
	static uint8_t ucMinuteCnt = 0;
	static uint8_t ucSecondCnt = 0;
	#if(_CCD_TYPE_CODE == _CCD_7500)
	uint8_t uiTitle[10] = {0x20,0x20,0x20,0x20,0x20,0x20,0x20,0x20,0x20,0x20};//space
	#else
	uint8_t uiTitle[10] = {0x1b,0x1b,0x1b,0x1b,0x1b,0x1b,0x1b,0x1b,0x1b,0x1b};//space
    2af6:	8a e0       	ldi	r24, 0x0A	; 10
    2af8:	eb e6       	ldi	r30, 0x6B	; 107
    2afa:	f2 e0       	ldi	r31, 0x02	; 2
    2afc:	de 01       	movw	r26, r28
    2afe:	11 96       	adiw	r26, 0x01	; 1
    2b00:	01 90       	ld	r0, Z+
    2b02:	0d 92       	st	X+, r0
    2b04:	8a 95       	dec	r24
    2b06:	e1 f7       	brne	.-8      	; 0x2b00 <SetTitle3+0x1e>
	#endif

	//if display focus end
	if((_FOCUS_MODE_MANUAL == g_stStatusCmd.FocusMode)&&(_DISPLAY_FOCUS& g_stStatusCmd.uiDisplayFlag)&&(_DISPLAY_FOCUS_END& g_stStatusCmd.uiDisplayFlag))
    2b08:	80 91 b5 03 	lds	r24, 0x03B5
    2b0c:	81 30       	cpi	r24, 0x01	; 1
    2b0e:	59 f4       	brne	.+22     	; 0x2b26 <SetTitle3+0x44>
    2b10:	80 91 bf 03 	lds	r24, 0x03BF
    2b14:	80 76       	andi	r24, 0x60	; 96
    2b16:	80 36       	cpi	r24, 0x60	; 96
    2b18:	31 f4       	brne	.+12     	; 0x2b26 <SetTitle3+0x44>
		#if(_CCD_TYPE_CODE == _CCD_7500)
			uiTitle[1] = 'E'; //0x46
			uiTitle[2] = 'N'; //0x41
			uiTitle[3] = 'D'; //0x41
			#else
			uiTitle[1] = 0x04; //E
    2b1a:	84 e0       	ldi	r24, 0x04	; 4
    2b1c:	8a 83       	std	Y+2, r24	; 0x02
			uiTitle[2] = 0x0D; //N
    2b1e:	8d e0       	ldi	r24, 0x0D	; 13
    2b20:	8b 83       	std	Y+3, r24	; 0x03
			uiTitle[3] = 0x03; //D
    2b22:	83 e0       	ldi	r24, 0x03	; 3
    2b24:	8c 83       	std	Y+4, r24	; 0x04
			#endif
	}
	
	// if display White
	if ((true == g_stStatusCmd.bIsDisplay)&&(_DISPLAY_WHITE& g_stStatusCmd.uiDisplayFlag))
    2b26:	80 91 be 03 	lds	r24, 0x03BE
    2b2a:	88 23       	and	r24, r24
    2b2c:	09 f1       	breq	.+66     	; 0x2b70 <SetTitle3+0x8e>
    2b2e:	80 91 bf 03 	lds	r24, 0x03BF
    2b32:	81 ff       	sbrs	r24, 1
    2b34:	e5 c0       	rjmp	.+458    	; 0x2d00 <SetTitle3+0x21e>
	{
		if (_WHITE_MODE_FA == g_stStatusCmd.WhiteMode)
    2b36:	80 91 c3 03 	lds	r24, 0x03C3
    2b3a:	81 30       	cpi	r24, 0x01	; 1
    2b3c:	21 f4       	brne	.+8      	; 0x2b46 <SetTitle3+0x64>
		{
			#if(_CCD_TYPE_CODE == _CCD_7500)
			uiTitle[1] = 'F'; //0x46
			uiTitle[2] = 'A'; //0x41
			#else
			uiTitle[1] = 0x05; //F
    2b3e:	85 e0       	ldi	r24, 0x05	; 5
    2b40:	8a 83       	std	Y+2, r24	; 0x02
			uiTitle[2] = 0x00; //A
    2b42:	1b 82       	std	Y+3, r1	; 0x03
    2b44:	dd c0       	rjmp	.+442    	; 0x2d00 <SetTitle3+0x21e>
			#endif
		}
		else if (_WHITE_MODE_FB == g_stStatusCmd.WhiteMode)
    2b46:	82 30       	cpi	r24, 0x02	; 2
    2b48:	09 f0       	breq	.+2      	; 0x2b4c <SetTitle3+0x6a>
    2b4a:	da c0       	rjmp	.+436    	; 0x2d00 <SetTitle3+0x21e>
		{
			#if(_CCD_TYPE_CODE == _CCD_7500)
			uiTitle[1] = 'F'; //0x46
			uiTitle[2] = 'B'; //0x42
			#else
			uiTitle[1] = 0x05; //F
    2b4c:	85 e0       	ldi	r24, 0x05	; 5
    2b4e:	8a 83       	std	Y+2, r24	; 0x02
			uiTitle[2] = 0x01; //B
    2b50:	81 e0       	ldi	r24, 0x01	; 1
    2b52:	8b 83       	std	Y+3, r24	; 0x03
    2b54:	d5 c0       	rjmp	.+426    	; 0x2d00 <SetTitle3+0x21e>
	}
	
	// if display Green
	if ((true == g_stStatusCmd.bIsDisplay)&&(_DISPLAY_FILTER& g_stStatusCmd.uiDisplayFlag))
	{
		if (g_stStatusCmd.GreenMode==_GREEN_MODE_G1 || g_stStatusCmd.GreenMode==_GREEN_MODE_G2 || g_stStatusCmd.GreenMode==_GREEN_MODE_G3)
    2b56:	e0 91 c4 03 	lds	r30, 0x03C4
    2b5a:	8f ef       	ldi	r24, 0xFF	; 255
    2b5c:	8e 0f       	add	r24, r30
    2b5e:	83 30       	cpi	r24, 0x03	; 3
    2b60:	38 f4       	brcc	.+14     	; 0x2b70 <SetTitle3+0x8e>
				uiTitle[4] = uiNumberTable[(uint8_t)g_stStatusCmd.GreenMode]; //
			#else
				#if(_CCD_TYPE_CODE == _CCD_7500)
				uiTitle[1] = 'G'; //0x47
				#else
				uiTitle[1] = 0x06; //G
    2b62:	86 e0       	ldi	r24, 0x06	; 6
    2b64:	8a 83       	std	Y+2, r24	; 0x02
				#endif
				uiTitle[2] = uiNumberTable[(uint8_t)g_stStatusCmd.GreenMode]; //
    2b66:	f0 e0       	ldi	r31, 0x00	; 0
    2b68:	e9 5b       	subi	r30, 0xB9	; 185
    2b6a:	fd 4f       	sbci	r31, 0xFD	; 253
    2b6c:	80 81       	ld	r24, Z
    2b6e:	8b 83       	std	Y+3, r24	; 0x03
			#endif
		}
	}
	
	// if display Time
	if (true == g_stStatusCmd.bIsTime)
    2b70:	80 91 c0 03 	lds	r24, 0x03C0
    2b74:	88 23       	and	r24, r24
    2b76:	09 f4       	brne	.+2      	; 0x2b7a <SetTitle3+0x98>
    2b78:	42 c0       	rjmp	.+132    	; 0x2bfe <SetTitle3+0x11c>
			uiTitle[4] = 'T'; //T
			#else
			uiTitle[4] = 0x13; //T
			#endif
		#endif
		if (true != g_stStatusCmd.bIsStill)
    2b7a:	80 91 c1 03 	lds	r24, 0x03C1
    2b7e:	81 11       	cpse	r24, r1
    2b80:	08 c0       	rjmp	.+16     	; 0x2b92 <SetTitle3+0xb0>
		{
			ucMinuteCnt = g_ucMinuteCnt;
    2b82:	80 91 68 03 	lds	r24, 0x0368
    2b86:	80 93 70 03 	sts	0x0370, r24
			ucSecondCnt = g_ucSecondCnt;
    2b8a:	80 91 67 03 	lds	r24, 0x0367
    2b8e:	80 93 6f 03 	sts	0x036F, r24
		}
		i = ucMinuteCnt/10;
    2b92:	e0 91 70 03 	lds	r30, 0x0370
    2b96:	8d ec       	ldi	r24, 0xCD	; 205
    2b98:	e8 9f       	mul	r30, r24
    2b9a:	91 2d       	mov	r25, r1
    2b9c:	11 24       	eor	r1, r1
    2b9e:	96 95       	lsr	r25
    2ba0:	96 95       	lsr	r25
    2ba2:	96 95       	lsr	r25
		j = ucMinuteCnt%10;
		uiTitle[5] = uiNumberTable[i];
    2ba4:	a9 2f       	mov	r26, r25
    2ba6:	b0 e0       	ldi	r27, 0x00	; 0
    2ba8:	a9 5b       	subi	r26, 0xB9	; 185
    2baa:	bd 4f       	sbci	r27, 0xFD	; 253
    2bac:	2c 91       	ld	r18, X
    2bae:	2e 83       	std	Y+6, r18	; 0x06
		{
			ucMinuteCnt = g_ucMinuteCnt;
			ucSecondCnt = g_ucSecondCnt;
		}
		i = ucMinuteCnt/10;
		j = ucMinuteCnt%10;
    2bb0:	99 0f       	add	r25, r25
    2bb2:	29 2f       	mov	r18, r25
    2bb4:	22 0f       	add	r18, r18
    2bb6:	22 0f       	add	r18, r18
    2bb8:	92 0f       	add	r25, r18
    2bba:	e9 1b       	sub	r30, r25
		uiTitle[5] = uiNumberTable[i];
		uiTitle[6] = uiNumberTable[j];
    2bbc:	f0 e0       	ldi	r31, 0x00	; 0
    2bbe:	e9 5b       	subi	r30, 0xB9	; 185
    2bc0:	fd 4f       	sbci	r31, 0xFD	; 253
    2bc2:	90 81       	ld	r25, Z
    2bc4:	9f 83       	std	Y+7, r25	; 0x07
		#if(_CCD_TYPE_CODE == _CCD_7500)
		uiTitle[7] = ':'; //:
		#else
		uiTitle[7] = 0x4a; //:
    2bc6:	9a e4       	ldi	r25, 0x4A	; 74
    2bc8:	98 87       	std	Y+8, r25	; 0x08
		#endif
		i = ucSecondCnt/10;
    2bca:	e0 91 6f 03 	lds	r30, 0x036F
    2bce:	e8 9f       	mul	r30, r24
    2bd0:	81 2d       	mov	r24, r1
    2bd2:	11 24       	eor	r1, r1
    2bd4:	86 95       	lsr	r24
    2bd6:	86 95       	lsr	r24
    2bd8:	86 95       	lsr	r24
		j = ucSecondCnt%10;
		uiTitle[8] = uiNumberTable[i];
    2bda:	a8 2f       	mov	r26, r24
    2bdc:	b0 e0       	ldi	r27, 0x00	; 0
    2bde:	a9 5b       	subi	r26, 0xB9	; 185
    2be0:	bd 4f       	sbci	r27, 0xFD	; 253
    2be2:	9c 91       	ld	r25, X
    2be4:	99 87       	std	Y+9, r25	; 0x09
		uiTitle[7] = ':'; //:
		#else
		uiTitle[7] = 0x4a; //:
		#endif
		i = ucSecondCnt/10;
		j = ucSecondCnt%10;
    2be6:	88 0f       	add	r24, r24
    2be8:	98 2f       	mov	r25, r24
    2bea:	99 0f       	add	r25, r25
    2bec:	99 0f       	add	r25, r25
    2bee:	89 0f       	add	r24, r25
    2bf0:	e8 1b       	sub	r30, r24
		uiTitle[8] = uiNumberTable[i];
		uiTitle[9] = uiNumberTable[j];
    2bf2:	f0 e0       	ldi	r31, 0x00	; 0
    2bf4:	e9 5b       	subi	r30, 0xB9	; 185
    2bf6:	fd 4f       	sbci	r31, 0xFD	; 253
    2bf8:	80 81       	ld	r24, Z
    2bfa:	8a 87       	std	Y+10, r24	; 0x0a
    2bfc:	04 c0       	rjmp	.+8      	; 0x2c06 <SetTitle3+0x124>
	}
	else
	{
		ucMinuteCnt = 0;
    2bfe:	10 92 70 03 	sts	0x0370, r1
		ucSecondCnt = 0;
    2c02:	10 92 6f 03 	sts	0x036F, r1
	}

	// if display WB
	if(g_stStatusCmd.WBMode != _WB_MODE_NORMAL)
    2c06:	80 91 c7 03 	lds	r24, 0x03C7
    2c0a:	88 23       	and	r24, r24
    2c0c:	09 f4       	brne	.+2      	; 0x2c10 <SetTitle3+0x12e>
    2c0e:	68 c0       	rjmp	.+208    	; 0x2ce0 <SetTitle3+0x1fe>
	{
		#if(_CCD_TYPE_CODE == _CCD_7500)
		uiTitle[0] = 'R'; //0x52
		uiTitle[1] = ':'; //0x3A
		#else
		uiTitle[0] = 0x11; //R
    2c10:	81 e1       	ldi	r24, 0x11	; 17
    2c12:	89 83       	std	Y+1, r24	; 0x01
		uiTitle[1] = 0x4A; //:
    2c14:	3a e4       	ldi	r19, 0x4A	; 74
    2c16:	3a 83       	std	Y+2, r19	; 0x02
		#endif
		uiTitle[2] = uiNumberTable[g_stStatusCmd.uiRGain/100]; 
    2c18:	e0 91 a8 03 	lds	r30, 0x03A8
    2c1c:	29 e2       	ldi	r18, 0x29	; 41
    2c1e:	e2 9f       	mul	r30, r18
    2c20:	a1 2d       	mov	r26, r1
    2c22:	11 24       	eor	r1, r1
    2c24:	a2 95       	swap	r26
    2c26:	af 70       	andi	r26, 0x0F	; 15
    2c28:	b0 e0       	ldi	r27, 0x00	; 0
    2c2a:	a9 5b       	subi	r26, 0xB9	; 185
    2c2c:	bd 4f       	sbci	r27, 0xFD	; 253
    2c2e:	8c 91       	ld	r24, X
    2c30:	8b 83       	std	Y+3, r24	; 0x03
		uiTitle[3] = uiNumberTable[(g_stStatusCmd.uiRGain/10)%10]; 
    2c32:	8d ec       	ldi	r24, 0xCD	; 205
    2c34:	e8 9f       	mul	r30, r24
    2c36:	91 2d       	mov	r25, r1
    2c38:	11 24       	eor	r1, r1
    2c3a:	96 95       	lsr	r25
    2c3c:	96 95       	lsr	r25
    2c3e:	96 95       	lsr	r25
    2c40:	98 9f       	mul	r25, r24
    2c42:	41 2d       	mov	r20, r1
    2c44:	11 24       	eor	r1, r1
    2c46:	46 95       	lsr	r20
    2c48:	46 95       	lsr	r20
    2c4a:	46 95       	lsr	r20
    2c4c:	44 0f       	add	r20, r20
    2c4e:	54 2f       	mov	r21, r20
    2c50:	55 0f       	add	r21, r21
    2c52:	55 0f       	add	r21, r21
    2c54:	45 0f       	add	r20, r21
    2c56:	a9 2f       	mov	r26, r25
    2c58:	a4 1b       	sub	r26, r20
    2c5a:	b0 e0       	ldi	r27, 0x00	; 0
    2c5c:	a9 5b       	subi	r26, 0xB9	; 185
    2c5e:	bd 4f       	sbci	r27, 0xFD	; 253
    2c60:	4c 91       	ld	r20, X
    2c62:	4c 83       	std	Y+4, r20	; 0x04
		uiTitle[4] = uiNumberTable[g_stStatusCmd.uiRGain%10]; 
    2c64:	99 0f       	add	r25, r25
    2c66:	49 2f       	mov	r20, r25
    2c68:	44 0f       	add	r20, r20
    2c6a:	44 0f       	add	r20, r20
    2c6c:	94 0f       	add	r25, r20
    2c6e:	e9 1b       	sub	r30, r25
    2c70:	f0 e0       	ldi	r31, 0x00	; 0
    2c72:	e9 5b       	subi	r30, 0xB9	; 185
    2c74:	fd 4f       	sbci	r31, 0xFD	; 253
    2c76:	90 81       	ld	r25, Z
    2c78:	9d 83       	std	Y+5, r25	; 0x05
		#if(_CCD_TYPE_CODE == _CCD_7500)
		uiTitle[5] = 'B'; //0x42
		uiTitle[6] = ':'; //0x3A
		#else
		uiTitle[5] = 0x01; //B
    2c7a:	91 e0       	ldi	r25, 0x01	; 1
    2c7c:	9e 83       	std	Y+6, r25	; 0x06
		uiTitle[6] = 0x4A; //:
    2c7e:	3f 83       	std	Y+7, r19	; 0x07
		#endif
		uiTitle[7] = uiNumberTable[g_stStatusCmd.uiBGain/100]; 
    2c80:	e0 91 aa 03 	lds	r30, 0x03AA
    2c84:	e2 9f       	mul	r30, r18
    2c86:	21 2d       	mov	r18, r1
    2c88:	11 24       	eor	r1, r1
    2c8a:	22 95       	swap	r18
    2c8c:	2f 70       	andi	r18, 0x0F	; 15
    2c8e:	a2 2f       	mov	r26, r18
    2c90:	b0 e0       	ldi	r27, 0x00	; 0
    2c92:	a9 5b       	subi	r26, 0xB9	; 185
    2c94:	bd 4f       	sbci	r27, 0xFD	; 253
    2c96:	9c 91       	ld	r25, X
    2c98:	98 87       	std	Y+8, r25	; 0x08
		uiTitle[8] = uiNumberTable[(g_stStatusCmd.uiBGain/10)%10]; 
    2c9a:	e8 9f       	mul	r30, r24
    2c9c:	91 2d       	mov	r25, r1
    2c9e:	11 24       	eor	r1, r1
    2ca0:	96 95       	lsr	r25
    2ca2:	96 95       	lsr	r25
    2ca4:	96 95       	lsr	r25
    2ca6:	98 9f       	mul	r25, r24
    2ca8:	81 2d       	mov	r24, r1
    2caa:	11 24       	eor	r1, r1
    2cac:	86 95       	lsr	r24
    2cae:	86 95       	lsr	r24
    2cb0:	86 95       	lsr	r24
    2cb2:	88 0f       	add	r24, r24
    2cb4:	28 2f       	mov	r18, r24
    2cb6:	22 0f       	add	r18, r18
    2cb8:	22 0f       	add	r18, r18
    2cba:	82 0f       	add	r24, r18
    2cbc:	a9 2f       	mov	r26, r25
    2cbe:	a8 1b       	sub	r26, r24
    2cc0:	b0 e0       	ldi	r27, 0x00	; 0
    2cc2:	a9 5b       	subi	r26, 0xB9	; 185
    2cc4:	bd 4f       	sbci	r27, 0xFD	; 253
    2cc6:	8c 91       	ld	r24, X
    2cc8:	89 87       	std	Y+9, r24	; 0x09
		uiTitle[9] = uiNumberTable[g_stStatusCmd.uiBGain%10]; 
    2cca:	99 0f       	add	r25, r25
    2ccc:	89 2f       	mov	r24, r25
    2cce:	88 0f       	add	r24, r24
    2cd0:	88 0f       	add	r24, r24
    2cd2:	98 0f       	add	r25, r24
    2cd4:	e9 1b       	sub	r30, r25
    2cd6:	f0 e0       	ldi	r31, 0x00	; 0
    2cd8:	e9 5b       	subi	r30, 0xB9	; 185
    2cda:	fd 4f       	sbci	r31, 0xFD	; 253
    2cdc:	80 81       	ld	r24, Z
    2cde:	8a 87       	std	Y+10, r24	; 0x0a
	}
	
	if (false == g_bTitle2Change && true == g_stStatusCmd.bIsStill)
    2ce0:	80 91 71 03 	lds	r24, 0x0371
    2ce4:	81 11       	cpse	r24, r1
    2ce6:	04 c0       	rjmp	.+8      	; 0x2cf0 <SetTitle3+0x20e>
    2ce8:	80 91 c1 03 	lds	r24, 0x03C1
    2cec:	81 11       	cpse	r24, r1
    2cee:	0d c0       	rjmp	.+26     	; 0x2d0a <SetTitle3+0x228>
		return;
	
	CAM_SetTitleSet3(g_stStatusCmd.titleDis.uiTitleVPos, uiTitle);
    2cf0:	be 01       	movw	r22, r28
    2cf2:	6f 5f       	subi	r22, 0xFF	; 255
    2cf4:	7f 4f       	sbci	r23, 0xFF	; 255
    2cf6:	80 91 b0 03 	lds	r24, 0x03B0
    2cfa:	0e 94 31 04 	call	0x862	; 0x862 <CAM_SetTitleSet3>
    2cfe:	05 c0       	rjmp	.+10     	; 0x2d0a <SetTitle3+0x228>
		{
		}
	}
	
	// if display Green
	if ((true == g_stStatusCmd.bIsDisplay)&&(_DISPLAY_FILTER& g_stStatusCmd.uiDisplayFlag))
    2d00:	80 91 bf 03 	lds	r24, 0x03BF
    2d04:	82 fd       	sbrc	r24, 2
    2d06:	27 cf       	rjmp	.-434    	; 0x2b56 <SetTitle3+0x74>
    2d08:	33 cf       	rjmp	.-410    	; 0x2b70 <SetTitle3+0x8e>
	
	if (false == g_bTitle2Change && true == g_stStatusCmd.bIsStill)
		return;
	
	CAM_SetTitleSet3(g_stStatusCmd.titleDis.uiTitleVPos, uiTitle);
}
    2d0a:	2a 96       	adiw	r28, 0x0a	; 10
    2d0c:	0f b6       	in	r0, 0x3f	; 63
    2d0e:	f8 94       	cli
    2d10:	de bf       	out	0x3e, r29	; 62
    2d12:	0f be       	out	0x3f, r0	; 63
    2d14:	cd bf       	out	0x3d, r28	; 61
    2d16:	df 91       	pop	r29
    2d18:	cf 91       	pop	r28
    2d1a:	08 95       	ret

00002d1c <TitleHandle>:

void TitleHandle(void)
{
	if (true == g_bTitle1Change)
    2d1c:	80 91 72 03 	lds	r24, 0x0372
    2d20:	88 23       	and	r24, r24
    2d22:	51 f0       	breq	.+20     	; 0x2d38 <TitleHandle+0x1c>
	{
		g_bTitle1Change = false;
    2d24:	10 92 72 03 	sts	0x0372, r1
		SetTitle2();
    2d28:	0e 94 c4 14 	call	0x2988	; 0x2988 <SetTitle2>
    2d2c:	8f e1       	ldi	r24, 0x1F	; 31
    2d2e:	9e e4       	ldi	r25, 0x4E	; 78
    2d30:	01 97       	sbiw	r24, 0x01	; 1
    2d32:	f1 f7       	brne	.-4      	; 0x2d30 <TitleHandle+0x14>
    2d34:	00 c0       	rjmp	.+0      	; 0x2d36 <TitleHandle+0x1a>
    2d36:	00 00       	nop
		_delay_ms(10);
	}
	if (true == g_bTimerChange || true == g_bTitle2Change)
    2d38:	80 91 69 03 	lds	r24, 0x0369
    2d3c:	81 11       	cpse	r24, r1
    2d3e:	04 c0       	rjmp	.+8      	; 0x2d48 <TitleHandle+0x2c>
    2d40:	80 91 71 03 	lds	r24, 0x0371
    2d44:	88 23       	and	r24, r24
    2d46:	31 f0       	breq	.+12     	; 0x2d54 <TitleHandle+0x38>
	{
		SetTitle3();		
    2d48:	0e 94 71 15 	call	0x2ae2	; 0x2ae2 <SetTitle3>
		g_bTimerChange = false;
    2d4c:	10 92 69 03 	sts	0x0369, r1
		g_bTitle2Change = false;
    2d50:	10 92 71 03 	sts	0x0371, r1
    2d54:	08 95       	ret

00002d56 <ShowProductInfo>:
	}

}

void ShowProductInfo(unsigned char LineNum)
{
    2d56:	1f 93       	push	r17
    2d58:	cf 93       	push	r28
    2d5a:	df 93       	push	r29
    2d5c:	cd b7       	in	r28, 0x3d	; 61
    2d5e:	de b7       	in	r29, 0x3e	; 62
    2d60:	2a 97       	sbiw	r28, 0x0a	; 10
    2d62:	0f b6       	in	r0, 0x3f	; 63
    2d64:	f8 94       	cli
    2d66:	de bf       	out	0x3e, r29	; 62
    2d68:	0f be       	out	0x3f, r0	; 63
    2d6a:	cd bf       	out	0x3d, r28	; 61
    2d6c:	18 2f       	mov	r17, r24
	uint8_t i,j,k,l,m;
	#if(_CCD_TYPE_CODE == _CCD_7500)
	uint8_t uiTitle[10] = {0x20,0x20,0x20,0x20,0x20,0x20,0x20,0x20,0x20,0x20};//space
	#else
	uint8_t uiTitle[10] = {0x1b,0x1b,0x1b,0x1b,0x1b,0x1b,0x1b,0x1b,0x1b,0x1b};//space
    2d6e:	8a e0       	ldi	r24, 0x0A	; 10
    2d70:	eb e6       	ldi	r30, 0x6B	; 107
    2d72:	f2 e0       	ldi	r31, 0x02	; 2
    2d74:	de 01       	movw	r26, r28
    2d76:	11 96       	adiw	r26, 0x01	; 1
    2d78:	01 90       	ld	r0, Z+
    2d7a:	0d 92       	st	X+, r0
    2d7c:	8a 95       	dec	r24
    2d7e:	e1 f7       	brne	.-8      	; 0x2d78 <ShowProductInfo+0x22>
	#endif
		
	//uint16_t uiModelCode = GetCameraVersion();
	
	//Product Model
	CAM_SetTitleSet2(LineNum, g_stProductInfo.uiProductModel);
    2d80:	68 ec       	ldi	r22, 0xC8	; 200
    2d82:	73 e0       	ldi	r23, 0x03	; 3
    2d84:	81 2f       	mov	r24, r17
    2d86:	0e 94 dd 03 	call	0x7ba	; 0x7ba <CAM_SetTitleSet2>
    2d8a:	2f ef       	ldi	r18, 0xFF	; 255
    2d8c:	80 e7       	ldi	r24, 0x70	; 112
    2d8e:	92 e0       	ldi	r25, 0x02	; 2
    2d90:	21 50       	subi	r18, 0x01	; 1
    2d92:	80 40       	sbci	r24, 0x00	; 0
    2d94:	90 40       	sbci	r25, 0x00	; 0
    2d96:	e1 f7       	brne	.-8      	; 0x2d90 <ShowProductInfo+0x3a>
    2d98:	00 c0       	rjmp	.+0      	; 0x2d9a <ShowProductInfo+0x44>
    2d9a:	00 00       	nop
	m = 2;
	//Control Software Version
	#if(_CCD_TYPE_CODE == _CCD_7500)
	uiTitle[m++] = 'V';//0x56
	#else
	uiTitle[m++] = 0x15;//V
    2d9c:	85 e1       	ldi	r24, 0x15	; 21
    2d9e:	8b 83       	std	Y+3, r24	; 0x03
	#endif
	i = g_stProductInfo.uiMajorVer/10;
    2da0:	a0 91 d2 03 	lds	r26, 0x03D2
    2da4:	ed ec       	ldi	r30, 0xCD	; 205
    2da6:	ae 9f       	mul	r26, r30
    2da8:	e1 2d       	mov	r30, r1
    2daa:	11 24       	eor	r1, r1
    2dac:	e6 95       	lsr	r30
    2dae:	e6 95       	lsr	r30
    2db0:	e6 95       	lsr	r30
	j = g_stProductInfo.uiMajorVer%10;
    2db2:	8e 2f       	mov	r24, r30
    2db4:	88 0f       	add	r24, r24
    2db6:	98 2f       	mov	r25, r24
    2db8:	99 0f       	add	r25, r25
    2dba:	99 0f       	add	r25, r25
    2dbc:	89 0f       	add	r24, r25
    2dbe:	a8 1b       	sub	r26, r24
	if (i>0)
    2dc0:	ee 23       	and	r30, r30
    2dc2:	39 f0       	breq	.+14     	; 0x2dd2 <ShowProductInfo+0x7c>
	{
		uiTitle[m++] = uiNumberTable[i];
    2dc4:	f0 e0       	ldi	r31, 0x00	; 0
    2dc6:	e9 5b       	subi	r30, 0xB9	; 185
    2dc8:	fd 4f       	sbci	r31, 0xFD	; 253
    2dca:	80 81       	ld	r24, Z
    2dcc:	8c 83       	std	Y+4, r24	; 0x04
    2dce:	84 e0       	ldi	r24, 0x04	; 4
    2dd0:	01 c0       	rjmp	.+2      	; 0x2dd4 <ShowProductInfo+0x7e>
	m = 2;
	//Control Software Version
	#if(_CCD_TYPE_CODE == _CCD_7500)
	uiTitle[m++] = 'V';//0x56
	#else
	uiTitle[m++] = 0x15;//V
    2dd2:	83 e0       	ldi	r24, 0x03	; 3
	j = g_stProductInfo.uiMajorVer%10;
	if (i>0)
	{
		uiTitle[m++] = uiNumberTable[i];
	}	
	uiTitle[m++] = uiNumberTable[j];
    2dd4:	e1 e0       	ldi	r30, 0x01	; 1
    2dd6:	f0 e0       	ldi	r31, 0x00	; 0
    2dd8:	ec 0f       	add	r30, r28
    2dda:	fd 1f       	adc	r31, r29
    2ddc:	e8 0f       	add	r30, r24
    2dde:	f1 1d       	adc	r31, r1
    2de0:	b0 e0       	ldi	r27, 0x00	; 0
    2de2:	a9 5b       	subi	r26, 0xB9	; 185
    2de4:	bd 4f       	sbci	r27, 0xFD	; 253
    2de6:	9c 91       	ld	r25, X
    2de8:	90 83       	st	Z, r25
    2dea:	91 e0       	ldi	r25, 0x01	; 1
    2dec:	98 0f       	add	r25, r24
	#if(_CCD_TYPE_CODE == _CCD_7500)
	uiTitle[m++] = '.';//0x2E
	#else
	uiTitle[m++] = 0x4c;//.
    2dee:	e1 e0       	ldi	r30, 0x01	; 1
    2df0:	f0 e0       	ldi	r31, 0x00	; 0
    2df2:	ec 0f       	add	r30, r28
    2df4:	fd 1f       	adc	r31, r29
    2df6:	e9 0f       	add	r30, r25
    2df8:	f1 1d       	adc	r31, r1
    2dfa:	9c e4       	ldi	r25, 0x4C	; 76
    2dfc:	90 83       	st	Z, r25
	#endif
	
	i = g_stProductInfo.uiMinorVer/10;
    2dfe:	90 91 d3 03 	lds	r25, 0x03D3
	}	
	uiTitle[m++] = uiNumberTable[j];
	#if(_CCD_TYPE_CODE == _CCD_7500)
	uiTitle[m++] = '.';//0x2E
	#else
	uiTitle[m++] = 0x4c;//.
    2e02:	22 e0       	ldi	r18, 0x02	; 2
    2e04:	28 0f       	add	r18, r24
	#endif
	
	i = g_stProductInfo.uiMinorVer/10;
	j = g_stProductInfo.uiMinorVer%10;
	uiTitle[m++] = uiNumberTable[i];
    2e06:	e1 e0       	ldi	r30, 0x01	; 1
    2e08:	f0 e0       	ldi	r31, 0x00	; 0
    2e0a:	ec 0f       	add	r30, r28
    2e0c:	fd 1f       	adc	r31, r29
    2e0e:	e2 0f       	add	r30, r18
    2e10:	f1 1d       	adc	r31, r1
	uiTitle[m++] = '.';//0x2E
	#else
	uiTitle[m++] = 0x4c;//.
	#endif
	
	i = g_stProductInfo.uiMinorVer/10;
    2e12:	2d ec       	ldi	r18, 0xCD	; 205
    2e14:	92 9f       	mul	r25, r18
    2e16:	21 2d       	mov	r18, r1
    2e18:	11 24       	eor	r1, r1
    2e1a:	26 95       	lsr	r18
    2e1c:	26 95       	lsr	r18
    2e1e:	26 95       	lsr	r18
	j = g_stProductInfo.uiMinorVer%10;
	uiTitle[m++] = uiNumberTable[i];
    2e20:	a2 2f       	mov	r26, r18
    2e22:	b0 e0       	ldi	r27, 0x00	; 0
    2e24:	a9 5b       	subi	r26, 0xB9	; 185
    2e26:	bd 4f       	sbci	r27, 0xFD	; 253
    2e28:	3c 91       	ld	r19, X
    2e2a:	30 83       	st	Z, r19
    2e2c:	33 e0       	ldi	r19, 0x03	; 3
    2e2e:	38 0f       	add	r19, r24
	uiTitle[m++] = uiNumberTable[j];	
    2e30:	e1 e0       	ldi	r30, 0x01	; 1
    2e32:	f0 e0       	ldi	r31, 0x00	; 0
    2e34:	ec 0f       	add	r30, r28
    2e36:	fd 1f       	adc	r31, r29
    2e38:	e3 0f       	add	r30, r19
    2e3a:	f1 1d       	adc	r31, r1
	#else
	uiTitle[m++] = 0x4c;//.
	#endif
	
	i = g_stProductInfo.uiMinorVer/10;
	j = g_stProductInfo.uiMinorVer%10;
    2e3c:	22 0f       	add	r18, r18
    2e3e:	32 2f       	mov	r19, r18
    2e40:	33 0f       	add	r19, r19
    2e42:	33 0f       	add	r19, r19
    2e44:	23 0f       	add	r18, r19
    2e46:	92 1b       	sub	r25, r18
	uiTitle[m++] = uiNumberTable[i];
	uiTitle[m++] = uiNumberTable[j];	
    2e48:	a9 2f       	mov	r26, r25
    2e4a:	b0 e0       	ldi	r27, 0x00	; 0
    2e4c:	a9 5b       	subi	r26, 0xB9	; 185
    2e4e:	bd 4f       	sbci	r27, 0xFD	; 253
    2e50:	9c 91       	ld	r25, X
    2e52:	90 83       	st	Z, r25
	
	//Camera Model
	#if(_CCD_TYPE_CODE == _CCD_7500)
	uiTitle[m++] = ' ';//0x2E
	#else
	uiTitle[m++] = 0x1b;//-
    2e54:	25 e0       	ldi	r18, 0x05	; 5
    2e56:	28 0f       	add	r18, r24
	#endif
	
	i = g_stProductInfo.uiMinorVer/10;
	j = g_stProductInfo.uiMinorVer%10;
	uiTitle[m++] = uiNumberTable[i];
	uiTitle[m++] = uiNumberTable[j];	
    2e58:	94 e0       	ldi	r25, 0x04	; 4
    2e5a:	98 0f       	add	r25, r24
	
	//Camera Model
	#if(_CCD_TYPE_CODE == _CCD_7500)
	uiTitle[m++] = ' ';//0x2E
	#else
	uiTitle[m++] = 0x1b;//-
    2e5c:	e1 e0       	ldi	r30, 0x01	; 1
    2e5e:	f0 e0       	ldi	r31, 0x00	; 0
    2e60:	ec 0f       	add	r30, r28
    2e62:	fd 1f       	adc	r31, r29
    2e64:	e9 0f       	add	r30, r25
    2e66:	f1 1d       	adc	r31, r1
    2e68:	9b e1       	ldi	r25, 0x1B	; 27
    2e6a:	90 83       	st	Z, r25
	#endif
	switch(g_stStatusCmd.uiModeID)
    2e6c:	90 91 a5 03 	lds	r25, 0x03A5
    2e70:	92 30       	cpi	r25, 0x02	; 2
    2e72:	81 f1       	breq	.+96     	; 0x2ed4 <ShowProductInfo+0x17e>
    2e74:	28 f4       	brcc	.+10     	; 0x2e80 <ShowProductInfo+0x12a>
    2e76:	99 23       	and	r25, r25
    2e78:	49 f0       	breq	.+18     	; 0x2e8c <ShowProductInfo+0x136>
    2e7a:	91 30       	cpi	r25, 0x01	; 1
    2e7c:	c9 f0       	breq	.+50     	; 0x2eb0 <ShowProductInfo+0x15a>
    2e7e:	5e c0       	rjmp	.+188    	; 0x2f3c <ShowProductInfo+0x1e6>
    2e80:	93 30       	cpi	r25, 0x03	; 3
    2e82:	c9 f1       	breq	.+114    	; 0x2ef6 <ShowProductInfo+0x1a0>
    2e84:	95 30       	cpi	r25, 0x05	; 5
    2e86:	09 f4       	brne	.+2      	; 0x2e8a <ShowProductInfo+0x134>
    2e88:	48 c0       	rjmp	.+144    	; 0x2f1a <ShowProductInfo+0x1c4>
    2e8a:	58 c0       	rjmp	.+176    	; 0x2f3c <ShowProductInfo+0x1e6>
	{
		case _CAM_480:
			uiTitle[m++] = 0x21;//-
    2e8c:	e1 e0       	ldi	r30, 0x01	; 1
    2e8e:	f0 e0       	ldi	r31, 0x00	; 0
    2e90:	ec 0f       	add	r30, r28
    2e92:	fd 1f       	adc	r31, r29
    2e94:	e2 0f       	add	r30, r18
    2e96:	f1 1d       	adc	r31, r1
    2e98:	91 e2       	ldi	r25, 0x21	; 33
    2e9a:	90 83       	st	Z, r25
    2e9c:	8a 5f       	subi	r24, 0xFA	; 250
			uiTitle[m++] = 0x25;//-
    2e9e:	e1 e0       	ldi	r30, 0x01	; 1
    2ea0:	f0 e0       	ldi	r31, 0x00	; 0
    2ea2:	ec 0f       	add	r30, r28
    2ea4:	fd 1f       	adc	r31, r29
    2ea6:	e8 0f       	add	r30, r24
    2ea8:	f1 1d       	adc	r31, r1
    2eaa:	85 e2       	ldi	r24, 0x25	; 37
    2eac:	80 83       	st	Z, r24
			break;
    2eae:	46 c0       	rjmp	.+140    	; 0x2f3c <ShowProductInfo+0x1e6>
		case _CAM_1020:
			uiTitle[m++] = 0x1e;//-
    2eb0:	e1 e0       	ldi	r30, 0x01	; 1
    2eb2:	f0 e0       	ldi	r31, 0x00	; 0
    2eb4:	ec 0f       	add	r30, r28
    2eb6:	fd 1f       	adc	r31, r29
    2eb8:	e2 0f       	add	r30, r18
    2eba:	f1 1d       	adc	r31, r1
    2ebc:	9e e1       	ldi	r25, 0x1E	; 30
    2ebe:	90 83       	st	Z, r25
    2ec0:	8a 5f       	subi	r24, 0xFA	; 250
			uiTitle[m++] = 0x27;//-
    2ec2:	e1 e0       	ldi	r30, 0x01	; 1
    2ec4:	f0 e0       	ldi	r31, 0x00	; 0
    2ec6:	ec 0f       	add	r30, r28
    2ec8:	fd 1f       	adc	r31, r29
    2eca:	e8 0f       	add	r30, r24
    2ecc:	f1 1d       	adc	r31, r1
    2ece:	87 e2       	ldi	r24, 0x27	; 39
    2ed0:	80 83       	st	Z, r24
			break;
    2ed2:	34 c0       	rjmp	.+104    	; 0x2f3c <ShowProductInfo+0x1e6>
		case _CAM_3310:
			uiTitle[m++] = 0x20;//-
    2ed4:	e1 e0       	ldi	r30, 0x01	; 1
    2ed6:	f0 e0       	ldi	r31, 0x00	; 0
    2ed8:	ec 0f       	add	r30, r28
    2eda:	fd 1f       	adc	r31, r29
    2edc:	e2 0f       	add	r30, r18
    2ede:	f1 1d       	adc	r31, r1
    2ee0:	90 e2       	ldi	r25, 0x20	; 32
    2ee2:	90 83       	st	Z, r25
    2ee4:	8a 5f       	subi	r24, 0xFA	; 250
			uiTitle[m++] = 0x20;//-
    2ee6:	e1 e0       	ldi	r30, 0x01	; 1
    2ee8:	f0 e0       	ldi	r31, 0x00	; 0
    2eea:	ec 0f       	add	r30, r28
    2eec:	fd 1f       	adc	r31, r29
    2eee:	e8 0f       	add	r30, r24
    2ef0:	f1 1d       	adc	r31, r1
    2ef2:	90 83       	st	Z, r25
			break;
    2ef4:	23 c0       	rjmp	.+70     	; 0x2f3c <ShowProductInfo+0x1e6>
		case _CAM_6300:
			uiTitle[m++] = 0x23;//-
    2ef6:	e1 e0       	ldi	r30, 0x01	; 1
    2ef8:	f0 e0       	ldi	r31, 0x00	; 0
    2efa:	ec 0f       	add	r30, r28
    2efc:	fd 1f       	adc	r31, r29
    2efe:	e2 0f       	add	r30, r18
    2f00:	f1 1d       	adc	r31, r1
    2f02:	93 e2       	ldi	r25, 0x23	; 35
    2f04:	90 83       	st	Z, r25
    2f06:	8a 5f       	subi	r24, 0xFA	; 250
			uiTitle[m++] = 0x20;//-
    2f08:	e1 e0       	ldi	r30, 0x01	; 1
    2f0a:	f0 e0       	ldi	r31, 0x00	; 0
    2f0c:	ec 0f       	add	r30, r28
    2f0e:	fd 1f       	adc	r31, r29
    2f10:	e8 0f       	add	r30, r24
    2f12:	f1 1d       	adc	r31, r1
    2f14:	80 e2       	ldi	r24, 0x20	; 32
    2f16:	80 83       	st	Z, r24
			break;
    2f18:	11 c0       	rjmp	.+34     	; 0x2f3c <ShowProductInfo+0x1e6>
		case _CAM_7500:
			uiTitle[m++] = 0x24;//-
    2f1a:	e1 e0       	ldi	r30, 0x01	; 1
    2f1c:	f0 e0       	ldi	r31, 0x00	; 0
    2f1e:	ec 0f       	add	r30, r28
    2f20:	fd 1f       	adc	r31, r29
    2f22:	e2 0f       	add	r30, r18
    2f24:	f1 1d       	adc	r31, r1
    2f26:	94 e2       	ldi	r25, 0x24	; 36
    2f28:	90 83       	st	Z, r25
    2f2a:	8a 5f       	subi	r24, 0xFA	; 250
			uiTitle[m++] = 0x22;//-
    2f2c:	e1 e0       	ldi	r30, 0x01	; 1
    2f2e:	f0 e0       	ldi	r31, 0x00	; 0
    2f30:	ec 0f       	add	r30, r28
    2f32:	fd 1f       	adc	r31, r29
    2f34:	e8 0f       	add	r30, r24
    2f36:	f1 1d       	adc	r31, r1
    2f38:	82 e2       	ldi	r24, 0x22	; 34
    2f3a:	80 83       	st	Z, r24
	//uiTitle[6] = uiNumberTable[i];
	//uiTitle[7] = uiNumberTable[j];
	//uiTitle[8] = uiNumberTable[k];
	//uiTitle[9] = uiNumberTable[l];
	
	CAM_SetTitleSet3(LineNum, uiTitle);
    2f3c:	be 01       	movw	r22, r28
    2f3e:	6f 5f       	subi	r22, 0xFF	; 255
    2f40:	7f 4f       	sbci	r23, 0xFF	; 255
    2f42:	81 2f       	mov	r24, r17
    2f44:	0e 94 31 04 	call	0x862	; 0x862 <CAM_SetTitleSet3>
}
    2f48:	2a 96       	adiw	r28, 0x0a	; 10
    2f4a:	0f b6       	in	r0, 0x3f	; 63
    2f4c:	f8 94       	cli
    2f4e:	de bf       	out	0x3e, r29	; 62
    2f50:	0f be       	out	0x3f, r0	; 63
    2f52:	cd bf       	out	0x3d, r28	; 61
    2f54:	df 91       	pop	r29
    2f56:	cf 91       	pop	r28
    2f58:	1f 91       	pop	r17
    2f5a:	08 95       	ret

00002f5c <__vector_18>:
bool ReplyHeadFoundA = false;
unsigned char ReplyLength = 0;
CMD_REPLY ReplyType = _CMD_REPLY_TOTAL;
//
ISR(USART_RX_vect)
{
    2f5c:	1f 92       	push	r1
    2f5e:	0f 92       	push	r0
    2f60:	0f b6       	in	r0, 0x3f	; 63
    2f62:	0f 92       	push	r0
    2f64:	11 24       	eor	r1, r1
    2f66:	2f 93       	push	r18
    2f68:	3f 93       	push	r19
    2f6a:	4f 93       	push	r20
    2f6c:	5f 93       	push	r21
    2f6e:	6f 93       	push	r22
    2f70:	7f 93       	push	r23
    2f72:	8f 93       	push	r24
    2f74:	9f 93       	push	r25
    2f76:	af 93       	push	r26
    2f78:	bf 93       	push	r27
    2f7a:	ef 93       	push	r30
    2f7c:	ff 93       	push	r31
	rev_data = UDR0;
    2f7e:	80 91 c6 00 	lds	r24, 0x00C6
    2f82:	80 93 1e 04 	sts	0x041E, r24
	
	switch(rev_data)
    2f86:	80 91 1e 04 	lds	r24, 0x041E
    2f8a:	80 39       	cpi	r24, 0x90	; 144
    2f8c:	19 f0       	breq	.+6      	; 0x2f94 <__vector_18+0x38>
    2f8e:	8f 3f       	cpi	r24, 0xFF	; 255
    2f90:	59 f0       	breq	.+22     	; 0x2fa8 <__vector_18+0x4c>
    2f92:	27 c0       	rjmp	.+78     	; 0x2fe2 <__vector_18+0x86>
	{
		case REPAY_HEAD:
			ReplyHeadFoundA = true;
    2f94:	81 e0       	ldi	r24, 0x01	; 1
    2f96:	80 93 74 03 	sts	0x0374, r24
			ReplyBuf[0] = rev_data;
    2f9a:	90 91 1e 04 	lds	r25, 0x041E
    2f9e:	90 93 fe 03 	sts	0x03FE, r25
			ReplyLength = 1;
    2fa2:	80 93 73 03 	sts	0x0373, r24
		break;
    2fa6:	2d c0       	rjmp	.+90     	; 0x3002 <__vector_18+0xa6>
		case REPAY_TAIL:
			
			if (ReplyHeadFoundA == true)
    2fa8:	80 91 74 03 	lds	r24, 0x0374
    2fac:	88 23       	and	r24, r24
    2fae:	49 f1       	breq	.+82     	; 0x3002 <__vector_18+0xa6>
			{
				
				ReplyBuf[ReplyLength++] = rev_data;
    2fb0:	e0 91 73 03 	lds	r30, 0x0373
    2fb4:	21 e0       	ldi	r18, 0x01	; 1
    2fb6:	2e 0f       	add	r18, r30
    2fb8:	20 93 73 03 	sts	0x0373, r18
    2fbc:	80 91 1e 04 	lds	r24, 0x041E
    2fc0:	f0 e0       	ldi	r31, 0x00	; 0
    2fc2:	e2 50       	subi	r30, 0x02	; 2
    2fc4:	fc 4f       	sbci	r31, 0xFC	; 252
    2fc6:	80 83       	st	Z, r24
				ReplyHeadFoundA = false;
    2fc8:	10 92 74 03 	sts	0x0374, r1
				g_stCameraCmd.CmdReply = ReplyBuf[1];
    2fcc:	80 91 ff 03 	lds	r24, 0x03FF
    2fd0:	80 93 7a 03 	sts	0x037A, r24
				CommandLoadBuf(g_stCameraCmd.CmdReply, &g_stCameraCmd, ReplyBuf, ReplyLength);
    2fd4:	4e ef       	ldi	r20, 0xFE	; 254
    2fd6:	53 e0       	ldi	r21, 0x03	; 3
    2fd8:	65 e7       	ldi	r22, 0x75	; 117
    2fda:	73 e0       	ldi	r23, 0x03	; 3
    2fdc:	0e 94 90 06 	call	0xd20	; 0xd20 <CommandLoadBuf>
    2fe0:	10 c0       	rjmp	.+32     	; 0x3002 <__vector_18+0xa6>

			}
		break;

		default:// data bytes
			if (ReplyHeadFoundA == true)
    2fe2:	80 91 74 03 	lds	r24, 0x0374
    2fe6:	88 23       	and	r24, r24
    2fe8:	61 f0       	breq	.+24     	; 0x3002 <__vector_18+0xa6>
			{
				ReplyBuf[ ReplyLength++ ] = rev_data;
    2fea:	e0 91 73 03 	lds	r30, 0x0373
    2fee:	81 e0       	ldi	r24, 0x01	; 1
    2ff0:	8e 0f       	add	r24, r30
    2ff2:	80 93 73 03 	sts	0x0373, r24
    2ff6:	80 91 1e 04 	lds	r24, 0x041E
    2ffa:	f0 e0       	ldi	r31, 0x00	; 0
    2ffc:	e2 50       	subi	r30, 0x02	; 2
    2ffe:	fc 4f       	sbci	r31, 0xFC	; 252
    3000:	80 83       	st	Z, r24
	}
	
	//
	//USART_SendUChar(rev_data);

}
    3002:	ff 91       	pop	r31
    3004:	ef 91       	pop	r30
    3006:	bf 91       	pop	r27
    3008:	af 91       	pop	r26
    300a:	9f 91       	pop	r25
    300c:	8f 91       	pop	r24
    300e:	7f 91       	pop	r23
    3010:	6f 91       	pop	r22
    3012:	5f 91       	pop	r21
    3014:	4f 91       	pop	r20
    3016:	3f 91       	pop	r19
    3018:	2f 91       	pop	r18
    301a:	0f 90       	pop	r0
    301c:	0f be       	out	0x3f, r0	; 63
    301e:	0f 90       	pop	r0
    3020:	1f 90       	pop	r1
    3022:	18 95       	reti

00003024 <USART_Init>:
// Output Value : None
//--------------------------------------------------
void USART_Init( unsigned int ubrr)
{
	/* Set baud rate */
	UBRR0H = (unsigned char)(ubrr>>8);
    3024:	90 93 c5 00 	sts	0x00C5, r25
	UBRR0L = (unsigned char)ubrr;
    3028:	80 93 c4 00 	sts	0x00C4, r24
	
	/* Enable receiver and transmitter */
	UCSR0B = (1<<RXCIE0)|(1<<RXEN0)|(1<<TXEN0);
    302c:	88 e9       	ldi	r24, 0x98	; 152
    302e:	80 93 c1 00 	sts	0x00C1, r24
	/* Set frame format: 8data, 1stop bit */
	UCSR0C = (1<<UCSZ01)|(1<<UCSZ00);
    3032:	86 e0       	ldi	r24, 0x06	; 6
    3034:	80 93 c2 00 	sts	0x00C2, r24
    3038:	08 95       	ret

0000303a <MY_USART_Init>:
// Input Value  : None
// Output Value : None
//--------------------------------------------------
void MY_USART_Init(void)
{
	USART_Init(MYUBRR);
    303a:	83 e3       	ldi	r24, 0x33	; 51
    303c:	90 e0       	ldi	r25, 0x00	; 0
    303e:	0e 94 12 18 	call	0x3024	; 0x3024 <USART_Init>
    3042:	08 95       	ret

00003044 <USART_SendUChar>:
// Output Value : None
//--------------------------------------------------
void USART_SendUChar( unsigned char data )
{
	/* Wait for empty transmit buffer */
	while ( !( UCSR0A & (1<<UDRE0)) )
    3044:	e0 ec       	ldi	r30, 0xC0	; 192
    3046:	f0 e0       	ldi	r31, 0x00	; 0
    3048:	90 81       	ld	r25, Z
    304a:	95 ff       	sbrs	r25, 5
    304c:	fd cf       	rjmp	.-6      	; 0x3048 <USART_SendUChar+0x4>
	;
	/* Put data into buffer, sends the data */
	UDR0 = data;
    304e:	80 93 c6 00 	sts	0x00C6, r24
    3052:	08 95       	ret

00003054 <USART_SendCmd>:
// Input Value  : buf     --> command array
//                len      --> command length
// Output Value : None
//--------------------------------------------------
void USART_SendCmd(uint8_t* buf, uint8_t len)
{
    3054:	0f 93       	push	r16
    3056:	1f 93       	push	r17
    3058:	cf 93       	push	r28
    305a:	df 93       	push	r29
    305c:	ec 01       	movw	r28, r24
    305e:	06 2f       	mov	r16, r22
	uint8_t i = 0;
	
	for (i = 0;i < len;i++)
    3060:	66 23       	and	r22, r22
    3062:	59 f0       	breq	.+22     	; 0x307a <USART_SendCmd+0x26>
    3064:	10 e0       	ldi	r17, 0x00	; 0
	{
		USART_SendUChar(*buf);
    3066:	89 91       	ld	r24, Y+
    3068:	0e 94 22 18 	call	0x3044	; 0x3044 <USART_SendUChar>
	#else
		//round up by default
		__ticks_dc = (uint32_t)(ceil(fabs(__tmp)));
	#endif

	__builtin_avr_delay_cycles(__ticks_dc);
    306c:	85 e3       	ldi	r24, 0x35	; 53
    306e:	8a 95       	dec	r24
    3070:	f1 f7       	brne	.-4      	; 0x306e <USART_SendCmd+0x1a>
    3072:	00 00       	nop
//--------------------------------------------------
void USART_SendCmd(uint8_t* buf, uint8_t len)
{
	uint8_t i = 0;
	
	for (i = 0;i < len;i++)
    3074:	1f 5f       	subi	r17, 0xFF	; 255
    3076:	10 13       	cpse	r17, r16
    3078:	f6 cf       	rjmp	.-20     	; 0x3066 <USART_SendCmd+0x12>
	{
		USART_SendUChar(*buf);
		buf++;
		_delay_us(20);
	}
}
    307a:	df 91       	pop	r29
    307c:	cf 91       	pop	r28
    307e:	1f 91       	pop	r17
    3080:	0f 91       	pop	r16
    3082:	08 95       	ret

00003084 <__divmodhi4>:
    3084:	97 fb       	bst	r25, 7
    3086:	07 2e       	mov	r0, r23
    3088:	16 f4       	brtc	.+4      	; 0x308e <__divmodhi4+0xa>
    308a:	00 94       	com	r0
    308c:	07 d0       	rcall	.+14     	; 0x309c <__divmodhi4_neg1>
    308e:	77 fd       	sbrc	r23, 7
    3090:	09 d0       	rcall	.+18     	; 0x30a4 <__divmodhi4_neg2>
    3092:	0e 94 7e 18 	call	0x30fc	; 0x30fc <__udivmodhi4>
    3096:	07 fc       	sbrc	r0, 7
    3098:	05 d0       	rcall	.+10     	; 0x30a4 <__divmodhi4_neg2>
    309a:	3e f4       	brtc	.+14     	; 0x30aa <__divmodhi4_exit>

0000309c <__divmodhi4_neg1>:
    309c:	90 95       	com	r25
    309e:	81 95       	neg	r24
    30a0:	9f 4f       	sbci	r25, 0xFF	; 255
    30a2:	08 95       	ret

000030a4 <__divmodhi4_neg2>:
    30a4:	70 95       	com	r23
    30a6:	61 95       	neg	r22
    30a8:	7f 4f       	sbci	r23, 0xFF	; 255

000030aa <__divmodhi4_exit>:
    30aa:	08 95       	ret

000030ac <__udivmodsi4>:
    30ac:	a1 e2       	ldi	r26, 0x21	; 33
    30ae:	1a 2e       	mov	r1, r26
    30b0:	aa 1b       	sub	r26, r26
    30b2:	bb 1b       	sub	r27, r27
    30b4:	fd 01       	movw	r30, r26
    30b6:	0d c0       	rjmp	.+26     	; 0x30d2 <__udivmodsi4_ep>

000030b8 <__udivmodsi4_loop>:
    30b8:	aa 1f       	adc	r26, r26
    30ba:	bb 1f       	adc	r27, r27
    30bc:	ee 1f       	adc	r30, r30
    30be:	ff 1f       	adc	r31, r31
    30c0:	a2 17       	cp	r26, r18
    30c2:	b3 07       	cpc	r27, r19
    30c4:	e4 07       	cpc	r30, r20
    30c6:	f5 07       	cpc	r31, r21
    30c8:	20 f0       	brcs	.+8      	; 0x30d2 <__udivmodsi4_ep>
    30ca:	a2 1b       	sub	r26, r18
    30cc:	b3 0b       	sbc	r27, r19
    30ce:	e4 0b       	sbc	r30, r20
    30d0:	f5 0b       	sbc	r31, r21

000030d2 <__udivmodsi4_ep>:
    30d2:	66 1f       	adc	r22, r22
    30d4:	77 1f       	adc	r23, r23
    30d6:	88 1f       	adc	r24, r24
    30d8:	99 1f       	adc	r25, r25
    30da:	1a 94       	dec	r1
    30dc:	69 f7       	brne	.-38     	; 0x30b8 <__udivmodsi4_loop>
    30de:	60 95       	com	r22
    30e0:	70 95       	com	r23
    30e2:	80 95       	com	r24
    30e4:	90 95       	com	r25
    30e6:	9b 01       	movw	r18, r22
    30e8:	ac 01       	movw	r20, r24
    30ea:	bd 01       	movw	r22, r26
    30ec:	cf 01       	movw	r24, r30
    30ee:	08 95       	ret

000030f0 <__tablejump2__>:
    30f0:	ee 0f       	add	r30, r30
    30f2:	ff 1f       	adc	r31, r31

000030f4 <__tablejump__>:
    30f4:	05 90       	lpm	r0, Z+
    30f6:	f4 91       	lpm	r31, Z
    30f8:	e0 2d       	mov	r30, r0
    30fa:	09 94       	ijmp

000030fc <__udivmodhi4>:
    30fc:	aa 1b       	sub	r26, r26
    30fe:	bb 1b       	sub	r27, r27
    3100:	51 e1       	ldi	r21, 0x11	; 17
    3102:	07 c0       	rjmp	.+14     	; 0x3112 <__udivmodhi4_ep>

00003104 <__udivmodhi4_loop>:
    3104:	aa 1f       	adc	r26, r26
    3106:	bb 1f       	adc	r27, r27
    3108:	a6 17       	cp	r26, r22
    310a:	b7 07       	cpc	r27, r23
    310c:	10 f0       	brcs	.+4      	; 0x3112 <__udivmodhi4_ep>
    310e:	a6 1b       	sub	r26, r22
    3110:	b7 0b       	sbc	r27, r23

00003112 <__udivmodhi4_ep>:
    3112:	88 1f       	adc	r24, r24
    3114:	99 1f       	adc	r25, r25
    3116:	5a 95       	dec	r21
    3118:	a9 f7       	brne	.-22     	; 0x3104 <__udivmodhi4_loop>
    311a:	80 95       	com	r24
    311c:	90 95       	com	r25
    311e:	bc 01       	movw	r22, r24
    3120:	cd 01       	movw	r24, r26
    3122:	08 95       	ret

00003124 <__eerd_byte_m168pa>:
    3124:	f9 99       	sbic	0x1f, 1	; 31
    3126:	fe cf       	rjmp	.-4      	; 0x3124 <__eerd_byte_m168pa>
    3128:	92 bd       	out	0x22, r25	; 34
    312a:	81 bd       	out	0x21, r24	; 33
    312c:	f8 9a       	sbi	0x1f, 0	; 31
    312e:	99 27       	eor	r25, r25
    3130:	80 b5       	in	r24, 0x20	; 32
    3132:	08 95       	ret

00003134 <__eewr_byte_m168pa>:
    3134:	26 2f       	mov	r18, r22

00003136 <__eewr_r18_m168pa>:
    3136:	f9 99       	sbic	0x1f, 1	; 31
    3138:	fe cf       	rjmp	.-4      	; 0x3136 <__eewr_r18_m168pa>
    313a:	1f ba       	out	0x1f, r1	; 31
    313c:	92 bd       	out	0x22, r25	; 34
    313e:	81 bd       	out	0x21, r24	; 33
    3140:	20 bd       	out	0x20, r18	; 32
    3142:	0f b6       	in	r0, 0x3f	; 63
    3144:	f8 94       	cli
    3146:	fa 9a       	sbi	0x1f, 2	; 31
    3148:	f9 9a       	sbi	0x1f, 1	; 31
    314a:	0f be       	out	0x3f, r0	; 63
    314c:	01 96       	adiw	r24, 0x01	; 1
    314e:	08 95       	ret

00003150 <_exit>:
    3150:	f8 94       	cli

00003152 <__stop_program>:
    3152:	ff cf       	rjmp	.-2      	; 0x3152 <__stop_program>
